---
triple:          'x86_64-apple-darwin'
binary-path:     '/Users/christopherkontsis/Desktop/C++/LimitOB/main'
relocations:
  - { offsetInCU: 0x5C, offset: 0x5C, size: 0x8, addend: 0x0, symName: __ZNSt3__1L19piecewise_constructE, symObjAddr: 0xAE88, symBinAddr: 0x10000FBDC, symSize: 0x0 }
  - { offsetInCU: 0xB635, offset: 0xB635, size: 0x8, addend: 0x0, symName: __ZNSt3__17advanceB7v160006INS_15__list_iteratorIN3LOB5OrderEPvEEllvEEvRT_T0_, symObjAddr: 0x7330, symBinAddr: 0x10000A8A0, symSize: 0x50 }
  - { offsetInCU: 0xC7E8, offset: 0xC7E8, size: 0x8, addend: 0x0, symName: __ZNSt3__17advanceB7v160006INS_14__map_iteratorINS_15__tree_iteratorINS_12__value_typeIyPN3LOB5LimitEEEPNS_11__tree_nodeIS7_PvEElEEEEllvEEvRT_T0_, symObjAddr: 0x96A0, symBinAddr: 0x10000CC10, symSize: 0x50 }
  - { offsetInCU: 0xE342, offset: 0xE342, size: 0x8, addend: 0x0, symName: __ZNSt3__1neB7v160006ERKNS_14__map_iteratorINS_15__tree_iteratorINS_12__value_typeIyPN3LOB5LimitEEEPNS_11__tree_nodeIS6_PvEElEEEESE_, symObjAddr: 0x1660, symBinAddr: 0x100004BD0, symSize: 0x30 }
  - { offsetInCU: 0xE37F, offset: 0xE37F, size: 0x8, addend: 0x0, symName: __ZNSt3__1neB7v160006ERKNS_15__tree_iteratorINS_12__value_typeIyPN3LOB5LimitEEEPNS_11__tree_nodeIS5_PvEElEESC_, symObjAddr: 0x1840, symBinAddr: 0x100004DB0, symSize: 0x30 }
  - { offsetInCU: 0xE3BC, offset: 0xE3BC, size: 0x8, addend: 0x0, symName: __ZNSt3__1eqB7v160006ERKNS_15__tree_iteratorINS_12__value_typeIyPN3LOB5LimitEEEPNS_11__tree_nodeIS5_PvEElEESC_, symObjAddr: 0x1870, symBinAddr: 0x100004DE0, symSize: 0x30 }
  - { offsetInCU: 0xE492, offset: 0xE492, size: 0x8, addend: 0x0, symName: __ZNSt3__17launderB7v160006INS_4pairIKyPN3LOB5LimitEEEEEPT_S8_, symObjAddr: 0x19D0, symBinAddr: 0x100004F40, symSize: 0x20 }
  - { offsetInCU: 0xE4C9, offset: 0xE4C9, size: 0x8, addend: 0x0, symName: __ZNSt3__19__launderB7v160006INS_4pairIKyPN3LOB5LimitEEEEEPT_S8_, symObjAddr: 0x19F0, symBinAddr: 0x100004F60, symSize: 0x10 }
  - { offsetInCU: 0xE500, offset: 0xE500, size: 0x8, addend: 0x0, symName: __ZNSt3__125__debug_db_invalidate_allB7v160006INS_10__list_impIN3LOB5OrderENS_9allocatorIS3_EEEEEEvPT_, symObjAddr: 0x1C70, symBinAddr: 0x1000051E0, symSize: 0x10 }
  - { offsetInCU: 0xE564, offset: 0xE564, size: 0x8, addend: 0x0, symName: __ZNSt3__110destroy_atB7v160006IN3LOB5OrderELi0EEEvPT_, symObjAddr: 0x1D70, symBinAddr: 0x1000052E0, symSize: 0x20 }
  - { offsetInCU: 0xE59B, offset: 0xE59B, size: 0x8, addend: 0x0, symName: __ZNSt3__112__destroy_atB7v160006IN3LOB5OrderELi0EEEvPT_, symObjAddr: 0x1D90, symBinAddr: 0x100005300, symSize: 0x10 }
  - { offsetInCU: 0xE5D2, offset: 0xE5D2, size: 0x8, addend: 0x0, symName: __ZNSt3__119__libcpp_deallocateB7v160006EPvmm, symObjAddr: 0x1DE0, symBinAddr: 0x100005350, symSize: 0x60 }
  - { offsetInCU: 0xE637, offset: 0xE637, size: 0x8, addend: 0x0, symName: __ZNSt3__124__is_overaligned_for_newB7v160006Em, symObjAddr: 0x1E40, symBinAddr: 0x1000053B0, symSize: 0x20 }
  - { offsetInCU: 0xE665, offset: 0xE665, size: 0x8, addend: 0x0, symName: __ZNSt3__127__do_deallocate_handle_sizeB7v160006IJSt11align_val_tEEEvPvmDpT_, symObjAddr: 0x1E60, symBinAddr: 0x1000053D0, symSize: 0x30 }
  - { offsetInCU: 0xE6B8, offset: 0xE6B8, size: 0x8, addend: 0x0, symName: __ZNSt3__127__do_deallocate_handle_sizeB7v160006IJEEEvPvmDpT_, symObjAddr: 0x1E90, symBinAddr: 0x100005400, symSize: 0x20 }
  - { offsetInCU: 0xE6F6, offset: 0xE6F6, size: 0x8, addend: 0x0, symName: __ZNSt3__124__libcpp_operator_deleteB7v160006IJPvSt11align_val_tEEEvDpT_, symObjAddr: 0x1EB0, symBinAddr: 0x100005420, symSize: 0x30 }
  - { offsetInCU: 0xE73F, offset: 0xE73F, size: 0x8, addend: 0x0, symName: __ZNSt3__124__libcpp_operator_deleteB7v160006IJPvEEEvDpT_, symObjAddr: 0x1EE0, symBinAddr: 0x100005450, symSize: 0x20 }
  - { offsetInCU: 0xE774, offset: 0xE774, size: 0x8, addend: 0x0, symName: __ZNSt3__116__tree_next_iterB7v160006IPNS_15__tree_end_nodeIPNS_16__tree_node_baseIPvEEEES5_EET_T0_, symObjAddr: 0x1F30, symBinAddr: 0x1000054A0, symSize: 0x90 }
  - { offsetInCU: 0xE7B2, offset: 0xE7B2, size: 0x8, addend: 0x0, symName: __ZNSt3__110__tree_minB7v160006IPNS_16__tree_node_baseIPvEEEET_S5_, symObjAddr: 0x1FC0, symBinAddr: 0x100005530, symSize: 0x30 }
  - { offsetInCU: 0xE7E7, offset: 0xE7E7, size: 0x8, addend: 0x0, symName: __ZNSt3__120__tree_is_left_childB7v160006IPNS_16__tree_node_baseIPvEEEEbT_, symObjAddr: 0x1FF0, symBinAddr: 0x100005560, symSize: 0x30 }
  - { offsetInCU: 0xE81C, offset: 0xE81C, size: 0x8, addend: 0x0, symName: __ZNSt3__110destroy_atB7v160006INS_4pairIKyPN3LOB5LimitEEELi0EEEvPT_, symObjAddr: 0x2260, symBinAddr: 0x1000057D0, symSize: 0x20 }
  - { offsetInCU: 0xE853, offset: 0xE853, size: 0x8, addend: 0x0, symName: __ZNSt3__112__destroy_atB7v160006INS_4pairIKyPN3LOB5LimitEEELi0EEEvPT_, symObjAddr: 0x2280, symBinAddr: 0x1000057F0, symSize: 0x10 }
  - { offsetInCU: 0xE8BD, offset: 0xE8BD, size: 0x8, addend: 0x0, symName: __ZNSt3__110destroy_atB7v160006INS_4pairIKyN3LOB5OrderEEELi0EEEvPT_, symObjAddr: 0x2680, symBinAddr: 0x100005BF0, symSize: 0x20 }
  - { offsetInCU: 0xE8F4, offset: 0xE8F4, size: 0x8, addend: 0x0, symName: __ZNSt3__112__destroy_atB7v160006INS_4pairIKyN3LOB5OrderEEELi0EEEvPT_, symObjAddr: 0x26A0, symBinAddr: 0x100005C10, symSize: 0x10 }
  - { offsetInCU: 0xE92B, offset: 0xE92B, size: 0x8, addend: 0x0, symName: __ZNSt3__17launderB7v160006INS_4pairIKyN3LOB5OrderEEEEEPT_S7_, symObjAddr: 0x26D0, symBinAddr: 0x100005C40, symSize: 0x20 }
  - { offsetInCU: 0xE962, offset: 0xE962, size: 0x8, addend: 0x0, symName: __ZNSt3__19__launderB7v160006INS_4pairIKyN3LOB5OrderEEEEEPT_S7_, symObjAddr: 0x26F0, symBinAddr: 0x100005C60, symSize: 0x10 }
  - { offsetInCU: 0xE9BD, offset: 0xE9BD, size: 0x8, addend: 0x0, symName: __ZNSt3__116__constrain_hashB7v160006Emm, symObjAddr: 0x2ED0, symBinAddr: 0x100006440, symSize: 0x80 }
  - { offsetInCU: 0xE9F7, offset: 0xE9F7, size: 0x8, addend: 0x0, symName: __ZNSt3__13maxB7v160006ImEERKT_S3_S3_, symObjAddr: 0x3160, symBinAddr: 0x1000066D0, symSize: 0x30 }
  - { offsetInCU: 0xEA3A, offset: 0xEA3A, size: 0x8, addend: 0x0, symName: __ZNSt3__116__is_hash_power2B7v160006Em, symObjAddr: 0x3190, symBinAddr: 0x100006700, symSize: 0x40 }
  - { offsetInCU: 0xEA66, offset: 0xEA66, size: 0x8, addend: 0x0, symName: __ZNSt3__17launderB7v160006IKNS_4pairIKyN3LOB5OrderEEEEEPT_S8_, symObjAddr: 0x33E0, symBinAddr: 0x100006950, symSize: 0x20 }
  - { offsetInCU: 0xEA9D, offset: 0xEA9D, size: 0x8, addend: 0x0, symName: __ZNSt3__19__launderB7v160006IKNS_4pairIKyN3LOB5OrderEEEEEPT_S8_, symObjAddr: 0x3400, symBinAddr: 0x100006970, symSize: 0x10 }
  - { offsetInCU: 0xEAF2, offset: 0xEAF2, size: 0x8, addend: 0x0, symName: __ZNSt3__117__libcpp_allocateB7v160006Emm, symObjAddr: 0x35B0, symBinAddr: 0x100006B20, symSize: 0x60 }
  - { offsetInCU: 0xEB4C, offset: 0xEB4C, size: 0x8, addend: 0x0, symName: __ZNSt3__121__libcpp_operator_newB7v160006IJmSt11align_val_tEEEPvDpT_, symObjAddr: 0x3630, symBinAddr: 0x100006BA0, symSize: 0x30 }
  - { offsetInCU: 0xEB99, offset: 0xEB99, size: 0x8, addend: 0x0, symName: __ZNSt3__121__libcpp_operator_newB7v160006IJmEEEPvDpT_, symObjAddr: 0x3660, symBinAddr: 0x100006BD0, symSize: 0x20 }
  - { offsetInCU: 0xEBF7, offset: 0xEBF7, size: 0x8, addend: 0x0, symName: __ZNSt3__112construct_atB7v160006INS_4pairIKyN3LOB5OrderEEEJRyS4_EPS5_EEPT_S9_DpOT0_, symObjAddr: 0x37B0, symBinAddr: 0x100006D20, symSize: 0x40 }
  - { offsetInCU: 0xEC7A, offset: 0xEC7A, size: 0x8, addend: 0x0, symName: __ZNSt3__116__next_hash_pow2B7v160006Em, symObjAddr: 0x3D50, symBinAddr: 0x1000072C0, symSize: 0x60 }
  - { offsetInCU: 0xECA6, offset: 0xECA6, size: 0x8, addend: 0x0, symName: __ZNSt3__125__debug_db_invalidate_allB7v160006INS_12__hash_tableINS_17__hash_value_typeIyN3LOB5OrderEEENS_22__unordered_map_hasherIyS5_NS_4hashIyEENS_8equal_toIyEELb1EEENS_21__unordered_map_equalIyS5_SA_S8_Lb1EEENS_9allocatorIS5_EEEEEEvPT_, symObjAddr: 0x3DB0, symBinAddr: 0x100007320, symSize: 0x10 }
  - { offsetInCU: 0xECF3, offset: 0xECF3, size: 0x8, addend: 0x0, symName: __ZNSt3__112__libcpp_clzB7v160006Em, symObjAddr: 0x40A0, symBinAddr: 0x100007610, symSize: 0x20 }
  - { offsetInCU: 0xED1F, offset: 0xED1F, size: 0x8, addend: 0x0, symName: __ZNSt3__13maxB7v160006ImNS_6__lessImmEEEERKT_S5_S5_T0_, symObjAddr: 0x40C0, symBinAddr: 0x100007630, symSize: 0x50 }
  - { offsetInCU: 0xEDB4, offset: 0xEDB4, size: 0x8, addend: 0x0, symName: __ZNSt3__1eqB7v160006ERKNS_19__hash_map_iteratorINS_15__hash_iteratorIPNS_11__hash_nodeINS_17__hash_value_typeIyN3LOB5OrderEEEPvEEEEEESD_, symObjAddr: 0x43F0, symBinAddr: 0x100007960, symSize: 0x30 }
  - { offsetInCU: 0xEDF1, offset: 0xEDF1, size: 0x8, addend: 0x0, symName: __ZNSt3__120__throw_out_of_rangeB7v160006EPKc, symObjAddr: 0x4450, symBinAddr: 0x1000079C0, symSize: 0x70 }
  - { offsetInCU: 0xEE1B, offset: 0xEE1B, size: 0x8, addend: 0x0, symName: __ZNSt3__1eqB7v160006ERKNS_15__hash_iteratorIPNS_11__hash_nodeINS_17__hash_value_typeIyN3LOB5OrderEEEPvEEEESB_, symObjAddr: 0x46A0, symBinAddr: 0x100007C10, symSize: 0x30 }
  - { offsetInCU: 0xEEBE, offset: 0xEEBE, size: 0x8, addend: 0x0, symName: __ZNSt3__14prevB7v160006INS_15__list_iteratorIN3LOB5OrderEPvEEEENS_9enable_ifIXsr25__is_cpp17_input_iteratorIT_EE5valueES7_E4typeES7_NS_15iterator_traitsIS7_E15difference_typeE, symObjAddr: 0x4E00, symBinAddr: 0x100008370, symSize: 0x50 }
  - { offsetInCU: 0xEF01, offset: 0xEF01, size: 0x8, addend: 0x0, symName: __ZNSt3__17launderB7v160006IKNS_4pairIKyPN3LOB5LimitEEEEEPT_S9_, symObjAddr: 0x5150, symBinAddr: 0x1000086C0, symSize: 0x20 }
  - { offsetInCU: 0xEF38, offset: 0xEF38, size: 0x8, addend: 0x0, symName: __ZNSt3__19__launderB7v160006IKNS_4pairIKyPN3LOB5LimitEEEEEPT_S9_, symObjAddr: 0x5170, symBinAddr: 0x1000086E0, symSize: 0x10 }
  - { offsetInCU: 0xEF6F, offset: 0xEF6F, size: 0x8, addend: 0x0, symName: __ZNSt3__119__debug_db_insert_cB7v160006INS_4listIN3LOB5OrderENS_9allocatorIS3_EEEEEEvPT_, symObjAddr: 0x52B0, symBinAddr: 0x100008820, symSize: 0x10 }
  - { offsetInCU: 0xEFA0, offset: 0xEFA0, size: 0x8, addend: 0x0, symName: __ZNSt3__119__debug_db_insert_cB7v160006INS_13unordered_mapIiNS_15__list_iteratorIN3LOB5OrderEPvEENS_4hashIiEENS_8equal_toIiEENS_9allocatorINS_4pairIKiS6_EEEEEEEEvPT_, symObjAddr: 0x5470, symBinAddr: 0x1000089E0, symSize: 0x10 }
  - { offsetInCU: 0xF038, offset: 0xF038, size: 0x8, addend: 0x0, symName: __ZNSt3__112construct_atB7v160006INS_4pairIKyPN3LOB5LimitEEEJRS2_RS5_EPS6_EEPT_SB_DpOT0_, symObjAddr: 0x6230, symBinAddr: 0x1000097A0, symSize: 0x40 }
  - { offsetInCU: 0xF0BB, offset: 0xF0BB, size: 0x8, addend: 0x0, symName: __ZNSt3__127__tree_balance_after_insertB7v160006IPNS_16__tree_node_baseIPvEEEEvT_S5_, symObjAddr: 0x6330, symBinAddr: 0x1000098A0, symSize: 0x240 }
  - { offsetInCU: 0xF137, offset: 0xF137, size: 0x8, addend: 0x0, symName: __ZNSt3__118__tree_left_rotateB7v160006IPNS_16__tree_node_baseIPvEEEEvT_, symObjAddr: 0x6570, symBinAddr: 0x100009AE0, symSize: 0xD0 }
  - { offsetInCU: 0xF179, offset: 0xF179, size: 0x8, addend: 0x0, symName: __ZNSt3__119__tree_right_rotateB7v160006IPNS_16__tree_node_baseIPvEEEEvT_, symObjAddr: 0x6640, symBinAddr: 0x100009BB0, symSize: 0xC0 }
  - { offsetInCU: 0xF1F2, offset: 0xF1F2, size: 0x8, addend: 0x0, symName: __ZNSt3__116forward_as_tupleB7v160006IJRKyEEENS_5tupleIJDpOT_EEES6_, symObjAddr: 0x6A00, symBinAddr: 0x100009F70, symSize: 0x30 }
  - { offsetInCU: 0xF22B, offset: 0xF22B, size: 0x8, addend: 0x0, symName: __ZNSt3__116forward_as_tupleB7v160006IJEEENS_5tupleIJDpOT_EEES4_, symObjAddr: 0x6A30, symBinAddr: 0x100009FA0, symSize: 0x10 }
  - { offsetInCU: 0xF24F, offset: 0xF24F, size: 0x8, addend: 0x0, symName: __ZNSt3__112construct_atB7v160006INS_4pairIKyPN3LOB5LimitEEEJRKNS_21piecewise_construct_tENS_5tupleIJRS2_EEENSA_IJEEEEPS6_EEPT_SG_DpOT0_, symObjAddr: 0x6B90, symBinAddr: 0x10000A100, symSize: 0x50 }
  - { offsetInCU: 0xF2F0, offset: 0xF2F0, size: 0x8, addend: 0x0, symName: __ZNSt3__13getB7v160006ILm0EJRKyEEERNS_13tuple_elementIXT_ENS_5tupleIJDpT0_EEEE4typeERS7_, symObjAddr: 0x6C90, symBinAddr: 0x10000A200, symSize: 0x20 }
  - { offsetInCU: 0xF39A, offset: 0xF39A, size: 0x8, addend: 0x0, symName: __ZNSt3__112construct_atB7v160006IN3LOB5OrderEJRS2_EPS2_EEPT_S6_DpOT0_, symObjAddr: 0x71A0, symBinAddr: 0x10000A710, symSize: 0x40 }
  - { offsetInCU: 0xF40A, offset: 0xF40A, size: 0x8, addend: 0x0, symName: __ZNSt3__121__convert_to_integralB7v160006El, symObjAddr: 0x7380, symBinAddr: 0x10000A8F0, symSize: 0x10 }
  - { offsetInCU: 0xF436, offset: 0xF436, size: 0x8, addend: 0x0, symName: __ZNSt3__19__advanceB7v160006INS_15__list_iteratorIN3LOB5OrderEPvEEEEvRT_NS_15iterator_traitsIS6_E15difference_typeENS_26bidirectional_iterator_tagE, symObjAddr: 0x7390, symBinAddr: 0x10000A900, symSize: 0x80 }
  - { offsetInCU: 0xF47F, offset: 0xF47F, size: 0x8, addend: 0x0, symName: __ZNSt3__116forward_as_tupleB7v160006IJiEEENS_5tupleIJDpOT_EEES4_, symObjAddr: 0x7AE0, symBinAddr: 0x10000B050, symSize: 0x30 }
  - { offsetInCU: 0xF4B8, offset: 0xF4B8, size: 0x8, addend: 0x0, symName: __ZNSt3__17launderB7v160006IKNS_4pairIKiNS_15__list_iteratorIN3LOB5OrderEPvEEEEEEPT_SB_, symObjAddr: 0x8140, symBinAddr: 0x10000B6B0, symSize: 0x20 }
  - { offsetInCU: 0xF4EF, offset: 0xF4EF, size: 0x8, addend: 0x0, symName: __ZNSt3__19__launderB7v160006IKNS_4pairIKiNS_15__list_iteratorIN3LOB5OrderEPvEEEEEEPT_SB_, symObjAddr: 0x8160, symBinAddr: 0x10000B6D0, symSize: 0x10 }
  - { offsetInCU: 0xF59C, offset: 0xF59C, size: 0x8, addend: 0x0, symName: __ZNSt3__112construct_atB7v160006INS_4pairIKiNS_15__list_iteratorIN3LOB5OrderEPvEEEEJRKNS_21piecewise_construct_tENS_5tupleIJOiEEENSC_IJEEEEPS8_EEPT_SI_DpOT0_, symObjAddr: 0x8490, symBinAddr: 0x10000BA00, symSize: 0x50 }
  - { offsetInCU: 0xF632, offset: 0xF632, size: 0x8, addend: 0x0, symName: __ZNSt3__13getB7v160006ILm0EJOiEEERNS_13tuple_elementIXT_ENS_5tupleIJDpT0_EEEE4typeERS6_, symObjAddr: 0x8590, symBinAddr: 0x10000BB00, symSize: 0x20 }
  - { offsetInCU: 0xF675, offset: 0xF675, size: 0x8, addend: 0x0, symName: __ZNSt3__119__debug_db_insert_iB7v160006INS_15__list_iteratorIN3LOB5OrderEPvEEEEvPT_, symObjAddr: 0x8620, symBinAddr: 0x10000BB90, symSize: 0x10 }
  - { offsetInCU: 0xF6A6, offset: 0xF6A6, size: 0x8, addend: 0x0, symName: __ZNSt3__125__debug_db_invalidate_allB7v160006INS_12__hash_tableINS_17__hash_value_typeIiNS_15__list_iteratorIN3LOB5OrderEPvEEEENS_22__unordered_map_hasherIiS8_NS_4hashIiEENS_8equal_toIiEELb1EEENS_21__unordered_map_equalIiS8_SD_SB_Lb1EEENS_9allocatorIS8_EEEEEEvPT_, symObjAddr: 0x8B30, symBinAddr: 0x10000C0A0, symSize: 0x10 }
  - { offsetInCU: 0xF6D7, offset: 0xF6D7, size: 0x8, addend: 0x0, symName: __ZNSt3__110destroy_atB7v160006INS_4pairIKiNS_15__list_iteratorIN3LOB5OrderEPvEEEELi0EEEvPT_, symObjAddr: 0x9000, symBinAddr: 0x10000C570, symSize: 0x20 }
  - { offsetInCU: 0xF70E, offset: 0xF70E, size: 0x8, addend: 0x0, symName: __ZNSt3__112__destroy_atB7v160006INS_4pairIKiNS_15__list_iteratorIN3LOB5OrderEPvEEEELi0EEEvPT_, symObjAddr: 0x9020, symBinAddr: 0x10000C590, symSize: 0x10 }
  - { offsetInCU: 0xF78D, offset: 0xF78D, size: 0x8, addend: 0x0, symName: __ZNSt3__17launderB7v160006INS_4pairIKiNS_15__list_iteratorIN3LOB5OrderEPvEEEEEEPT_SA_, symObjAddr: 0x91B0, symBinAddr: 0x10000C720, symSize: 0x20 }
  - { offsetInCU: 0xF7C4, offset: 0xF7C4, size: 0x8, addend: 0x0, symName: __ZNSt3__19__launderB7v160006INS_4pairIKiNS_15__list_iteratorIN3LOB5OrderEPvEEEEEEPT_SA_, symObjAddr: 0x91D0, symBinAddr: 0x10000C740, symSize: 0x10 }
  - { offsetInCU: 0xF7FB, offset: 0xF7FB, size: 0x8, addend: 0x0, symName: __ZNSt3__14prevB7v160006INS_14__map_iteratorINS_15__tree_iteratorINS_12__value_typeIyPN3LOB5LimitEEEPNS_11__tree_nodeIS7_PvEElEEEEEENS_9enable_ifIXsr25__is_cpp17_input_iteratorIT_EE5valueESF_E4typeESF_NS_15iterator_traitsISF_E15difference_typeE, symObjAddr: 0x9650, symBinAddr: 0x10000CBC0, symSize: 0x50 }
  - { offsetInCU: 0xF83E, offset: 0xF83E, size: 0x8, addend: 0x0, symName: __ZNSt3__19__advanceB7v160006INS_14__map_iteratorINS_15__tree_iteratorINS_12__value_typeIyPN3LOB5LimitEEEPNS_11__tree_nodeIS7_PvEElEEEEEEvRT_NS_15iterator_traitsISE_E15difference_typeENS_26bidirectional_iterator_tagE, symObjAddr: 0x96F0, symBinAddr: 0x10000CC60, symSize: 0x80 }
  - { offsetInCU: 0xF887, offset: 0xF887, size: 0x8, addend: 0x0, symName: __ZNSt3__116__tree_prev_iterB7v160006IPNS_16__tree_node_baseIPvEEPNS_15__tree_end_nodeIS4_EEEET_T0_, symObjAddr: 0x97D0, symBinAddr: 0x10000CD40, symSize: 0x80 }
  - { offsetInCU: 0xF8D3, offset: 0xF8D3, size: 0x8, addend: 0x0, symName: __ZNSt3__110__tree_maxB7v160006IPNS_16__tree_node_baseIPvEEEET_S5_, symObjAddr: 0x9850, symBinAddr: 0x10000CDC0, symSize: 0x30 }
  - { offsetInCU: 0xF908, offset: 0xF908, size: 0x8, addend: 0x0, symName: __ZNSt3__113__tree_removeB7v160006IPNS_16__tree_node_baseIPvEEEEvT_S5_, symObjAddr: 0x9C40, symBinAddr: 0x10000D1B0, symSize: 0x5E0 }
  - { offsetInCU: 0xF986, offset: 0xF986, size: 0x8, addend: 0x0, symName: __ZNSt3__111__tree_nextB7v160006IPNS_16__tree_node_baseIPvEEEET_S5_, symObjAddr: 0xA220, symBinAddr: 0x10000D790, symSize: 0x80 }
  - { offsetInCU: 0xF9BB, offset: 0xF9BB, size: 0x8, addend: 0x0, symName: __ZNSt3__118__debug_db_erase_cB7v160006INS_12__hash_tableINS_17__hash_value_typeIiNS_15__list_iteratorIN3LOB5OrderEPvEEEENS_22__unordered_map_hasherIiS8_NS_4hashIiEENS_8equal_toIiEELb1EEENS_21__unordered_map_equalIiS8_SD_SB_Lb1EEENS_9allocatorIS8_EEEEEEvPT_, symObjAddr: 0xA460, symBinAddr: 0x10000D9D0, symSize: 0x10 }
  - { offsetInCU: 0xF9EC, offset: 0xF9EC, size: 0x8, addend: 0x0, symName: __ZNSt3__118__debug_db_erase_cB7v160006INS_10__list_impIN3LOB5OrderENS_9allocatorIS3_EEEEEEvPT_, symObjAddr: 0xA570, symBinAddr: 0x10000DAE0, symSize: 0x10 }
  - { offsetInCU: 0xFA1D, offset: 0xFA1D, size: 0x8, addend: 0x0, symName: __ZNSt3__1eqB7v160006ERKNS_15__hash_iteratorIPNS_11__hash_nodeINS_17__hash_value_typeIiNS_15__list_iteratorIN3LOB5OrderEPvEEEES6_EEEESD_, symObjAddr: 0xA790, symBinAddr: 0x10000DD00, symSize: 0x30 }
  - { offsetInCU: 0xFCE5, offset: 0xFCE5, size: 0x8, addend: 0x0, symName: __ZSt28__throw_bad_array_new_lengthB7v160006v, symObjAddr: 0x3570, symBinAddr: 0x100006AE0, symSize: 0x40 }
  - { offsetInCU: 0x101CA, offset: 0x101CA, size: 0x8, addend: 0x0, symName: __ZN3LOB8canMatchILNS_4SideE1EEEbyy, symObjAddr: 0x4AF0, symBinAddr: 0x100008060, symSize: 0x40 }
  - { offsetInCU: 0x1020E, offset: 0x1020E, size: 0x8, addend: 0x0, symName: __ZN3LOB7setBestILNS_4SideE0EEEvPPNS_5LimitES3_, symObjAddr: 0x4BF0, symBinAddr: 0x100008160, symSize: 0x60 }
  - { offsetInCU: 0x1024E, offset: 0x1024E, size: 0x8, addend: 0x0, symName: __ZN3LOB8canMatchILNS_4SideE0EEEbyy, symObjAddr: 0x91E0, symBinAddr: 0x10000C750, symSize: 0x40 }
  - { offsetInCU: 0x10292, offset: 0x10292, size: 0x8, addend: 0x0, symName: __ZN3LOB7setBestILNS_4SideE1EEEvPPNS_5LimitES3_, symObjAddr: 0x9250, symBinAddr: 0x10000C7C0, symSize: 0x60 }
  - { offsetInCU: 0x102D2, offset: 0x102D2, size: 0x8, addend: 0x0, symName: __ZN3LOB8findBestILNS_4SideE0EEEvPPNS_5LimitERNSt3__13mapIyS3_NS5_4lessIyEENS5_9allocatorINS5_4pairIKyS3_EEEEEE, symObjAddr: 0x9330, symBinAddr: 0x10000C8A0, symSize: 0x70 }
  - { offsetInCU: 0x10320, offset: 0x10320, size: 0x8, addend: 0x0, symName: __ZN3LOB8findBestILNS_4SideE1EEEvPPNS_5LimitERNSt3__13mapIyS3_NS5_4lessIyEENS5_9allocatorINS5_4pairIKyS3_EEEEEE, symObjAddr: 0xAAE0, symBinAddr: 0x10000E050, symSize: 0x5D }
  - { offsetInCU: 0x13815, offset: 0x13815, size: 0x8, addend: 0x0, symName: __ZN3LOB14LimitOrderBook5clearEv, symObjAddr: 0x0, symBinAddr: 0x100003570, symSize: 0x40 }
  - { offsetInCU: 0x1383D, offset: 0x1383D, size: 0x8, addend: 0x0, symName: __ZN3LOB9LimitTreeILNS_4SideE0EE5clearEv, symObjAddr: 0x40, symBinAddr: 0x1000035B0, symSize: 0xA0 }
  - { offsetInCU: 0x1387F, offset: 0x1387F, size: 0x8, addend: 0x0, symName: __ZN3LOB9LimitTreeILNS_4SideE1EE5clearEv, symObjAddr: 0xE0, symBinAddr: 0x100003650, symSize: 0xA0 }
  - { offsetInCU: 0x138C1, offset: 0x138C1, size: 0x8, addend: 0x0, symName: __ZNSt3__113unordered_mapIyN3LOB5OrderENS_4hashIyEENS_8equal_toIyEENS_9allocatorINS_4pairIKyS2_EEEEE5clearB7v160006Ev, symObjAddr: 0x180, symBinAddr: 0x1000036F0, symSize: 0x20 }
  - { offsetInCU: 0x138E7, offset: 0x138E7, size: 0x8, addend: 0x0, symName: __ZN3LOB14LimitOrderBook5limitENS_4SideEyyy, symObjAddr: 0x1A0, symBinAddr: 0x100003710, symSize: 0x70 }
  - { offsetInCU: 0x13947, offset: 0x13947, size: 0x8, addend: 0x0, symName: __ZN3LOB14LimitOrderBook8limitBuyEyyy, symObjAddr: 0x210, symBinAddr: 0x100003780, symSize: 0x110 }
  - { offsetInCU: 0x139C0, offset: 0x139C0, size: 0x8, addend: 0x0, symName: __ZN3LOB14LimitOrderBook9limitSellEyyy, symObjAddr: 0x320, symBinAddr: 0x100003890, symSize: 0x120 }
  - { offsetInCU: 0x13A3E, offset: 0x13A3E, size: 0x8, addend: 0x0, symName: __ZNSt3__113unordered_mapIyN3LOB5OrderENS_4hashIyEENS_8equal_toIyEENS_9allocatorINS_4pairIKyS2_EEEEE7emplaceB7v160006IJRyS2_EEENS8_INS_19__hash_map_iteratorINS_15__hash_iteratorIPNS_11__hash_nodeINS_17__hash_value_typeIyS2_EEPvEEEEEEbEEDpOT_, symObjAddr: 0x440, symBinAddr: 0x1000039B0, symSize: 0x50 }
  - { offsetInCU: 0x13A92, offset: 0x13A92, size: 0x8, addend: 0x0, symName: __ZN3LOB5OrderC1EyyyNS_4SideE, symObjAddr: 0x490, symBinAddr: 0x100003A00, symSize: 0x40 }
  - { offsetInCU: 0x13AF9, offset: 0x13AF9, size: 0x8, addend: 0x0, symName: '__ZN3LOB9LimitTreeILNS_4SideE1EE6marketIZNS_14LimitOrderBook8limitBuyEyyyE3$_0EEvRNS_5OrderET_', symObjAddr: 0x4D0, symBinAddr: 0x100003A40, symSize: 0x160 }
  - { offsetInCU: 0x13B60, offset: 0x13B60, size: 0x8, addend: 0x0, symName: __ZNSt3__113unordered_mapIyN3LOB5OrderENS_4hashIyEENS_8equal_toIyEENS_9allocatorINS_4pairIKyS2_EEEEE2atERS9_, symObjAddr: 0x630, symBinAddr: 0x100003BA0, symSize: 0x70 }
  - { offsetInCU: 0x13BA6, offset: 0x13BA6, size: 0x8, addend: 0x0, symName: __ZNSt3__113unordered_mapIyN3LOB5OrderENS_4hashIyEENS_8equal_toIyEENS_9allocatorINS_4pairIKyS2_EEEEE5eraseB7v160006ERS9_, symObjAddr: 0x6A0, symBinAddr: 0x100003C10, symSize: 0x30 }
  - { offsetInCU: 0x13BDB, offset: 0x13BDB, size: 0x8, addend: 0x0, symName: __ZN3LOB9LimitTreeILNS_4SideE0EE5limitERNS_5OrderE, symObjAddr: 0x6D0, symBinAddr: 0x100003C40, symSize: 0x250 }
  - { offsetInCU: 0x13C0F, offset: 0x13C0F, size: 0x8, addend: 0x0, symName: '__ZN3LOB9LimitTreeILNS_4SideE0EE6marketIZNS_14LimitOrderBook9limitSellEyyyE3$_1EEvRNS_5OrderET_', symObjAddr: 0x920, symBinAddr: 0x100003E90, symSize: 0x160 }
  - { offsetInCU: 0x13C76, offset: 0x13C76, size: 0x8, addend: 0x0, symName: __ZN3LOB9LimitTreeILNS_4SideE1EE5limitERNS_5OrderE, symObjAddr: 0xA80, symBinAddr: 0x100003FF0, symSize: 0x250 }
  - { offsetInCU: 0x13CAA, offset: 0x13CAA, size: 0x8, addend: 0x0, symName: __ZN3LOB14LimitOrderBook6marketENS_4SideEyy, symObjAddr: 0xCD0, symBinAddr: 0x100004240, symSize: 0x60 }
  - { offsetInCU: 0x13CFC, offset: 0x13CFC, size: 0x8, addend: 0x0, symName: __ZN3LOB14LimitOrderBook9marketBuyEyy, symObjAddr: 0xD30, symBinAddr: 0x1000042A0, symSize: 0x50 }
  - { offsetInCU: 0x13D75, offset: 0x13D75, size: 0x8, addend: 0x0, symName: __ZN3LOB14LimitOrderBook10marketSellEyy, symObjAddr: 0xD80, symBinAddr: 0x1000042F0, symSize: 0x60 }
  - { offsetInCU: 0x13DEE, offset: 0x13DEE, size: 0x8, addend: 0x0, symName: '__ZN3LOB9LimitTreeILNS_4SideE1EE6marketIZNS_14LimitOrderBook9marketBuyEyyE3$_2EEvRNS_5OrderET_', symObjAddr: 0xDE0, symBinAddr: 0x100004350, symSize: 0x160 }
  - { offsetInCU: 0x13E55, offset: 0x13E55, size: 0x8, addend: 0x0, symName: '__ZN3LOB9LimitTreeILNS_4SideE0EE6marketIZNS_14LimitOrderBook10marketSellEyyE3$_3EEvRNS_5OrderET_', symObjAddr: 0xF40, symBinAddr: 0x1000044B0, symSize: 0x160 }
  - { offsetInCU: 0x13EBC, offset: 0x13EBC, size: 0x8, addend: 0x0, symName: __ZN3LOB14LimitOrderBook6reduceEyy, symObjAddr: 0x10A0, symBinAddr: 0x100004610, symSize: 0x130 }
  - { offsetInCU: 0x13F0E, offset: 0x13F0E, size: 0x8, addend: 0x0, symName: __ZN3LOB9LimitTreeILNS_4SideE0EE6cancelERNS_5OrderE, symObjAddr: 0x11D0, symBinAddr: 0x100004740, symSize: 0x1D0 }
  - { offsetInCU: 0x13F7A, offset: 0x13F7A, size: 0x8, addend: 0x0, symName: __ZN3LOB9LimitTreeILNS_4SideE1EE6cancelERNS_5OrderE, symObjAddr: 0x13A0, symBinAddr: 0x100004910, symSize: 0x1D0 }
  - { offsetInCU: 0x13FE6, offset: 0x13FE6, size: 0x8, addend: 0x0, symName: __ZN3LOB14LimitOrderBook6cancelEy, symObjAddr: 0x1570, symBinAddr: 0x100004AE0, symSize: 0x80 }
  - { offsetInCU: 0x1402A, offset: 0x1402A, size: 0x8, addend: 0x0, symName: __ZN3LOB5OrderC2EyyyNS_4SideE, symObjAddr: 0x15F0, symBinAddr: 0x100004B60, symSize: 0x40 }
  - { offsetInCU: 0x1408C, offset: 0x1408C, size: 0x8, addend: 0x0, symName: __ZNSt3__13mapIyPN3LOB5LimitENS_4lessIyEENS_9allocatorINS_4pairIKyS3_EEEEE5beginB7v160006Ev, symObjAddr: 0x1630, symBinAddr: 0x100004BA0, symSize: 0x30 }
  - { offsetInCU: 0x140B2, offset: 0x140B2, size: 0x8, addend: 0x0, symName: __ZNSt3__13mapIyPN3LOB5LimitENS_4lessIyEENS_9allocatorINS_4pairIKyS3_EEEEE3endB7v160006Ev, symObjAddr: 0x1690, symBinAddr: 0x100004C00, symSize: 0x30 }
  - { offsetInCU: 0x140D8, offset: 0x140D8, size: 0x8, addend: 0x0, symName: __ZNKSt3__114__map_iteratorINS_15__tree_iteratorINS_12__value_typeIyPN3LOB5LimitEEEPNS_11__tree_nodeIS6_PvEElEEEptB7v160006Ev, symObjAddr: 0x16C0, symBinAddr: 0x100004C30, symSize: 0x30 }
  - { offsetInCU: 0x140FE, offset: 0x140FE, size: 0x8, addend: 0x0, symName: __ZNSt3__14listIN3LOB5OrderENS_9allocatorIS2_EEE5clearB7v160006Ev, symObjAddr: 0x16F0, symBinAddr: 0x100004C60, symSize: 0x20 }
  - { offsetInCU: 0x14124, offset: 0x14124, size: 0x8, addend: 0x0, symName: __ZNSt3__114__map_iteratorINS_15__tree_iteratorINS_12__value_typeIyPN3LOB5LimitEEEPNS_11__tree_nodeIS6_PvEElEEEppB7v160006Ev, symObjAddr: 0x1710, symBinAddr: 0x100004C80, symSize: 0x30 }
  - { offsetInCU: 0x1414A, offset: 0x1414A, size: 0x8, addend: 0x0, symName: __ZNSt3__13mapIyPN3LOB5LimitENS_4lessIyEENS_9allocatorINS_4pairIKyS3_EEEEE5clearB7v160006Ev, symObjAddr: 0x1740, symBinAddr: 0x100004CB0, symSize: 0x20 }
  - { offsetInCU: 0x14170, offset: 0x14170, size: 0x8, addend: 0x0, symName: __ZNSt3__16__treeINS_12__value_typeIyPN3LOB5LimitEEENS_19__map_value_compareIyS5_NS_4lessIyEELb1EEENS_9allocatorIS5_EEE5beginB7v160006Ev, symObjAddr: 0x1760, symBinAddr: 0x100004CD0, symSize: 0x30 }
  - { offsetInCU: 0x14196, offset: 0x14196, size: 0x8, addend: 0x0, symName: __ZNSt3__114__map_iteratorINS_15__tree_iteratorINS_12__value_typeIyPN3LOB5LimitEEEPNS_11__tree_nodeIS6_PvEElEEEC1B7v160006ESB_, symObjAddr: 0x1790, symBinAddr: 0x100004D00, symSize: 0x30 }
  - { offsetInCU: 0x141CF, offset: 0x141CF, size: 0x8, addend: 0x0, symName: __ZNSt3__16__treeINS_12__value_typeIyPN3LOB5LimitEEENS_19__map_value_compareIyS5_NS_4lessIyEELb1EEENS_9allocatorIS5_EEE12__begin_nodeB7v160006Ev, symObjAddr: 0x17C0, symBinAddr: 0x100004D30, symSize: 0x10 }
  - { offsetInCU: 0x141F5, offset: 0x141F5, size: 0x8, addend: 0x0, symName: __ZNSt3__115__tree_iteratorINS_12__value_typeIyPN3LOB5LimitEEEPNS_11__tree_nodeIS5_PvEElEC1B7v160006EPNS_15__tree_end_nodeIPNS_16__tree_node_baseIS7_EEEE, symObjAddr: 0x17D0, symBinAddr: 0x100004D40, symSize: 0x30 }
  - { offsetInCU: 0x1422E, offset: 0x1422E, size: 0x8, addend: 0x0, symName: __ZNSt3__115__tree_iteratorINS_12__value_typeIyPN3LOB5LimitEEEPNS_11__tree_nodeIS5_PvEElEC2B7v160006EPNS_15__tree_end_nodeIPNS_16__tree_node_baseIS7_EEEE, symObjAddr: 0x1800, symBinAddr: 0x100004D70, symSize: 0x20 }
  - { offsetInCU: 0x14267, offset: 0x14267, size: 0x8, addend: 0x0, symName: __ZNSt3__114__map_iteratorINS_15__tree_iteratorINS_12__value_typeIyPN3LOB5LimitEEEPNS_11__tree_nodeIS6_PvEElEEEC2B7v160006ESB_, symObjAddr: 0x1820, symBinAddr: 0x100004D90, symSize: 0x20 }
  - { offsetInCU: 0x142A0, offset: 0x142A0, size: 0x8, addend: 0x0, symName: __ZNSt3__16__treeINS_12__value_typeIyPN3LOB5LimitEEENS_19__map_value_compareIyS5_NS_4lessIyEELb1EEENS_9allocatorIS5_EEE3endB7v160006Ev, symObjAddr: 0x18A0, symBinAddr: 0x100004E10, symSize: 0x30 }
  - { offsetInCU: 0x142C6, offset: 0x142C6, size: 0x8, addend: 0x0, symName: __ZNSt3__16__treeINS_12__value_typeIyPN3LOB5LimitEEENS_19__map_value_compareIyS5_NS_4lessIyEELb1EEENS_9allocatorIS5_EEE10__end_nodeB7v160006Ev, symObjAddr: 0x18D0, symBinAddr: 0x100004E40, symSize: 0x30 }
  - { offsetInCU: 0x142EC, offset: 0x142EC, size: 0x8, addend: 0x0, symName: __ZNSt3__114pointer_traitsIPNS_15__tree_end_nodeIPNS_16__tree_node_baseIPvEEEEE10pointer_toB7v160006ERS6_, symObjAddr: 0x1900, symBinAddr: 0x100004E70, symSize: 0x10 }
  - { offsetInCU: 0x1430F, offset: 0x1430F, size: 0x8, addend: 0x0, symName: __ZNSt3__117__compressed_pairINS_15__tree_end_nodeIPNS_16__tree_node_baseIPvEEEENS_9allocatorINS_11__tree_nodeINS_12__value_typeIyPN3LOB5LimitEEES3_EEEEE5firstB7v160006Ev, symObjAddr: 0x1910, symBinAddr: 0x100004E80, symSize: 0x20 }
  - { offsetInCU: 0x14335, offset: 0x14335, size: 0x8, addend: 0x0, symName: __ZNSt3__122__compressed_pair_elemINS_15__tree_end_nodeIPNS_16__tree_node_baseIPvEEEELi0ELb0EE5__getB7v160006Ev, symObjAddr: 0x1930, symBinAddr: 0x100004EA0, symSize: 0x10 }
  - { offsetInCU: 0x1435B, offset: 0x1435B, size: 0x8, addend: 0x0, symName: __ZNSt3__114pointer_traitsIPNS_4pairIKyPN3LOB5LimitEEEE10pointer_toB7v160006ERS6_, symObjAddr: 0x1940, symBinAddr: 0x100004EB0, symSize: 0x10 }
  - { offsetInCU: 0x1437E, offset: 0x1437E, size: 0x8, addend: 0x0, symName: __ZNKSt3__115__tree_iteratorINS_12__value_typeIyPN3LOB5LimitEEEPNS_11__tree_nodeIS5_PvEElEptB7v160006Ev, symObjAddr: 0x1950, symBinAddr: 0x100004EC0, symSize: 0x30 }
  - { offsetInCU: 0x143A4, offset: 0x143A4, size: 0x8, addend: 0x0, symName: __ZNSt3__112__value_typeIyPN3LOB5LimitEE11__get_valueB7v160006Ev, symObjAddr: 0x1980, symBinAddr: 0x100004EF0, symSize: 0x20 }
  - { offsetInCU: 0x143CA, offset: 0x143CA, size: 0x8, addend: 0x0, symName: __ZNSt3__114pointer_traitsIPNS_12__value_typeIyPN3LOB5LimitEEEE10pointer_toB7v160006ERS5_, symObjAddr: 0x19A0, symBinAddr: 0x100004F10, symSize: 0x10 }
  - { offsetInCU: 0x143ED, offset: 0x143ED, size: 0x8, addend: 0x0, symName: __ZNKSt3__115__tree_iteratorINS_12__value_typeIyPN3LOB5LimitEEEPNS_11__tree_nodeIS5_PvEElE8__get_npB7v160006Ev, symObjAddr: 0x19B0, symBinAddr: 0x100004F20, symSize: 0x20 }
  - { offsetInCU: 0x14413, offset: 0x14413, size: 0x8, addend: 0x0, symName: __ZNSt3__110__list_impIN3LOB5OrderENS_9allocatorIS2_EEE5clearEv, symObjAddr: 0x1A00, symBinAddr: 0x100004F70, symSize: 0xF0 }
  - { offsetInCU: 0x14485, offset: 0x14485, size: 0x8, addend: 0x0, symName: __ZNKSt3__110__list_impIN3LOB5OrderENS_9allocatorIS2_EEE5emptyB7v160006Ev, symObjAddr: 0x1AF0, symBinAddr: 0x100005060, symSize: 0x30 }
  - { offsetInCU: 0x144AB, offset: 0x144AB, size: 0x8, addend: 0x0, symName: __ZNSt3__110__list_impIN3LOB5OrderENS_9allocatorIS2_EEE12__node_allocB7v160006Ev, symObjAddr: 0x1B20, symBinAddr: 0x100005090, symSize: 0x20 }
  - { offsetInCU: 0x144D1, offset: 0x144D1, size: 0x8, addend: 0x0, symName: __ZNKSt3__110__list_impIN3LOB5OrderENS_9allocatorIS2_EEE13__end_as_linkB7v160006Ev, symObjAddr: 0x1B40, symBinAddr: 0x1000050B0, symSize: 0x50 }
  - { offsetInCU: 0x144F7, offset: 0x144F7, size: 0x8, addend: 0x0, symName: __ZNSt3__110__list_impIN3LOB5OrderENS_9allocatorIS2_EEE14__unlink_nodesEPNS_16__list_node_baseIS2_PvEES9_, symObjAddr: 0x1B90, symBinAddr: 0x100005100, symSize: 0x40 }
  - { offsetInCU: 0x1452C, offset: 0x1452C, size: 0x8, addend: 0x0, symName: __ZNSt3__110__list_impIN3LOB5OrderENS_9allocatorIS2_EEE4__szB7v160006Ev, symObjAddr: 0x1BD0, symBinAddr: 0x100005140, symSize: 0x20 }
  - { offsetInCU: 0x14552, offset: 0x14552, size: 0x8, addend: 0x0, symName: __ZNSt3__116__list_node_baseIN3LOB5OrderEPvE9__as_nodeB7v160006Ev, symObjAddr: 0x1BF0, symBinAddr: 0x100005160, symSize: 0x20 }
  - { offsetInCU: 0x14578, offset: 0x14578, size: 0x8, addend: 0x0, symName: __ZNSt3__116allocator_traitsINS_9allocatorINS_11__list_nodeIN3LOB5OrderEPvEEEEE7destroyB7v160006IS4_vvEEvRS7_PT_, symObjAddr: 0x1C20, symBinAddr: 0x100005190, symSize: 0x20 }
  - { offsetInCU: 0x145B3, offset: 0x145B3, size: 0x8, addend: 0x0, symName: __ZNSt3__116allocator_traitsINS_9allocatorINS_11__list_nodeIN3LOB5OrderEPvEEEEE10deallocateB7v160006ERS7_PS6_m, symObjAddr: 0x1C40, symBinAddr: 0x1000051B0, symSize: 0x30 }
  - { offsetInCU: 0x145F5, offset: 0x145F5, size: 0x8, addend: 0x0, symName: __ZNKSt3__110__list_impIN3LOB5OrderENS_9allocatorIS2_EEE4__szB7v160006Ev, symObjAddr: 0x1C80, symBinAddr: 0x1000051F0, symSize: 0x20 }
  - { offsetInCU: 0x1461B, offset: 0x1461B, size: 0x8, addend: 0x0, symName: __ZNKSt3__117__compressed_pairImNS_9allocatorINS_11__list_nodeIN3LOB5OrderEPvEEEEE5firstB7v160006Ev, symObjAddr: 0x1CA0, symBinAddr: 0x100005210, symSize: 0x20 }
  - { offsetInCU: 0x14641, offset: 0x14641, size: 0x8, addend: 0x0, symName: __ZNKSt3__122__compressed_pair_elemImLi0ELb0EE5__getB7v160006Ev, symObjAddr: 0x1CC0, symBinAddr: 0x100005230, symSize: 0x10 }
  - { offsetInCU: 0x14667, offset: 0x14667, size: 0x8, addend: 0x0, symName: __ZNSt3__117__compressed_pairImNS_9allocatorINS_11__list_nodeIN3LOB5OrderEPvEEEEE6secondB7v160006Ev, symObjAddr: 0x1CD0, symBinAddr: 0x100005240, symSize: 0x20 }
  - { offsetInCU: 0x1468D, offset: 0x1468D, size: 0x8, addend: 0x0, symName: __ZNSt3__122__compressed_pair_elemINS_9allocatorINS_11__list_nodeIN3LOB5OrderEPvEEEELi1ELb1EE5__getB7v160006Ev, symObjAddr: 0x1CF0, symBinAddr: 0x100005260, symSize: 0x10 }
  - { offsetInCU: 0x146B3, offset: 0x146B3, size: 0x8, addend: 0x0, symName: __ZNSt3__126__list_node_pointer_traitsIN3LOB5OrderEPvE26__unsafe_link_pointer_castB7v160006EPNS_16__list_node_baseIS2_S3_EE, symObjAddr: 0x1D00, symBinAddr: 0x100005270, symSize: 0x10 }
  - { offsetInCU: 0x146D7, offset: 0x146D7, size: 0x8, addend: 0x0, symName: __ZNSt3__116__list_node_baseIN3LOB5OrderEPvE6__selfB7v160006Ev, symObjAddr: 0x1D10, symBinAddr: 0x100005280, symSize: 0x20 }
  - { offsetInCU: 0x14702, offset: 0x14702, size: 0x8, addend: 0x0, symName: __ZNSt3__114pointer_traitsIPNS_16__list_node_baseIN3LOB5OrderEPvEEE10pointer_toB7v160006ERS5_, symObjAddr: 0x1D30, symBinAddr: 0x1000052A0, symSize: 0x10 }
  - { offsetInCU: 0x14725, offset: 0x14725, size: 0x8, addend: 0x0, symName: __ZNSt3__117__compressed_pairImNS_9allocatorINS_11__list_nodeIN3LOB5OrderEPvEEEEE5firstB7v160006Ev, symObjAddr: 0x1D40, symBinAddr: 0x1000052B0, symSize: 0x20 }
  - { offsetInCU: 0x1474B, offset: 0x1474B, size: 0x8, addend: 0x0, symName: __ZNSt3__122__compressed_pair_elemImLi0ELb0EE5__getB7v160006Ev, symObjAddr: 0x1D60, symBinAddr: 0x1000052D0, symSize: 0x10 }
  - { offsetInCU: 0x14771, offset: 0x14771, size: 0x8, addend: 0x0, symName: __ZNSt3__19allocatorINS_11__list_nodeIN3LOB5OrderEPvEEE10deallocateB7v160006EPS5_m, symObjAddr: 0x1DA0, symBinAddr: 0x100005310, symSize: 0x40 }
  - { offsetInCU: 0x147B3, offset: 0x147B3, size: 0x8, addend: 0x0, symName: __ZNSt3__115__tree_iteratorINS_12__value_typeIyPN3LOB5LimitEEEPNS_11__tree_nodeIS5_PvEElEppB7v160006Ev, symObjAddr: 0x1F00, symBinAddr: 0x100005470, symSize: 0x30 }
  - { offsetInCU: 0x147D9, offset: 0x147D9, size: 0x8, addend: 0x0, symName: __ZNKSt3__116__tree_node_baseIPvE15__parent_unsafeB7v160006Ev, symObjAddr: 0x2020, symBinAddr: 0x100005590, symSize: 0x20 }
  - { offsetInCU: 0x147FF, offset: 0x147FF, size: 0x8, addend: 0x0, symName: __ZNSt3__16__treeINS_12__value_typeIyPN3LOB5LimitEEENS_19__map_value_compareIyS5_NS_4lessIyEELb1EEENS_9allocatorIS5_EEE5clearEv, symObjAddr: 0x2040, symBinAddr: 0x1000055B0, symSize: 0x70 }
  - { offsetInCU: 0x14827, offset: 0x14827, size: 0x8, addend: 0x0, symName: __ZNSt3__16__treeINS_12__value_typeIyPN3LOB5LimitEEENS_19__map_value_compareIyS5_NS_4lessIyEELb1EEENS_9allocatorIS5_EEE7destroyEPNS_11__tree_nodeIS5_PvEE, symObjAddr: 0x20B0, symBinAddr: 0x100005620, symSize: 0xB0 }
  - { offsetInCU: 0x14874, offset: 0x14874, size: 0x8, addend: 0x0, symName: __ZNKSt3__16__treeINS_12__value_typeIyPN3LOB5LimitEEENS_19__map_value_compareIyS5_NS_4lessIyEELb1EEENS_9allocatorIS5_EEE6__rootB7v160006Ev, symObjAddr: 0x2160, symBinAddr: 0x1000056D0, symSize: 0x20 }
  - { offsetInCU: 0x1489A, offset: 0x1489A, size: 0x8, addend: 0x0, symName: __ZNSt3__16__treeINS_12__value_typeIyPN3LOB5LimitEEENS_19__map_value_compareIyS5_NS_4lessIyEELb1EEENS_9allocatorIS5_EEE4sizeB7v160006Ev, symObjAddr: 0x2180, symBinAddr: 0x1000056F0, symSize: 0x20 }
  - { offsetInCU: 0x148C0, offset: 0x148C0, size: 0x8, addend: 0x0, symName: __ZNSt3__16__treeINS_12__value_typeIyPN3LOB5LimitEEENS_19__map_value_compareIyS5_NS_4lessIyEELb1EEENS_9allocatorIS5_EEE12__node_allocB7v160006Ev, symObjAddr: 0x21A0, symBinAddr: 0x100005710, symSize: 0x20 }
  - { offsetInCU: 0x148E6, offset: 0x148E6, size: 0x8, addend: 0x0, symName: __ZNSt3__116allocator_traitsINS_9allocatorINS_11__tree_nodeINS_12__value_typeIyPN3LOB5LimitEEEPvEEEEE7destroyB7v160006INS_4pairIKyS6_EEvvEEvRSA_PT_, symObjAddr: 0x21C0, symBinAddr: 0x100005730, symSize: 0x20 }
  - { offsetInCU: 0x14921, offset: 0x14921, size: 0x8, addend: 0x0, symName: __ZNSt3__122__tree_key_value_typesINS_12__value_typeIyPN3LOB5LimitEEEE9__get_ptrB7v160006ERS5_, symObjAddr: 0x21E0, symBinAddr: 0x100005750, symSize: 0x20 }
  - { offsetInCU: 0x14945, offset: 0x14945, size: 0x8, addend: 0x0, symName: __ZNSt3__116allocator_traitsINS_9allocatorINS_11__tree_nodeINS_12__value_typeIyPN3LOB5LimitEEEPvEEEEE10deallocateB7v160006ERSA_PS9_m, symObjAddr: 0x2200, symBinAddr: 0x100005770, symSize: 0x30 }
  - { offsetInCU: 0x14987, offset: 0x14987, size: 0x8, addend: 0x0, symName: __ZNSt3__117__compressed_pairINS_15__tree_end_nodeIPNS_16__tree_node_baseIPvEEEENS_9allocatorINS_11__tree_nodeINS_12__value_typeIyPN3LOB5LimitEEES3_EEEEE6secondB7v160006Ev, symObjAddr: 0x2230, symBinAddr: 0x1000057A0, symSize: 0x20 }
  - { offsetInCU: 0x149AD, offset: 0x149AD, size: 0x8, addend: 0x0, symName: __ZNSt3__122__compressed_pair_elemINS_9allocatorINS_11__tree_nodeINS_12__value_typeIyPN3LOB5LimitEEEPvEEEELi1ELb1EE5__getB7v160006Ev, symObjAddr: 0x2250, symBinAddr: 0x1000057C0, symSize: 0x10 }
  - { offsetInCU: 0x149D3, offset: 0x149D3, size: 0x8, addend: 0x0, symName: __ZNSt3__19allocatorINS_11__tree_nodeINS_12__value_typeIyPN3LOB5LimitEEEPvEEE10deallocateB7v160006EPS8_m, symObjAddr: 0x2290, symBinAddr: 0x100005800, symSize: 0x50 }
  - { offsetInCU: 0x14A15, offset: 0x14A15, size: 0x8, addend: 0x0, symName: __ZNKSt3__16__treeINS_12__value_typeIyPN3LOB5LimitEEENS_19__map_value_compareIyS5_NS_4lessIyEELb1EEENS_9allocatorIS5_EEE10__end_nodeB7v160006Ev, symObjAddr: 0x22E0, symBinAddr: 0x100005850, symSize: 0x30 }
  - { offsetInCU: 0x14A3B, offset: 0x14A3B, size: 0x8, addend: 0x0, symName: __ZNKSt3__117__compressed_pairINS_15__tree_end_nodeIPNS_16__tree_node_baseIPvEEEENS_9allocatorINS_11__tree_nodeINS_12__value_typeIyPN3LOB5LimitEEES3_EEEEE5firstB7v160006Ev, symObjAddr: 0x2310, symBinAddr: 0x100005880, symSize: 0x20 }
  - { offsetInCU: 0x14A61, offset: 0x14A61, size: 0x8, addend: 0x0, symName: __ZNKSt3__122__compressed_pair_elemINS_15__tree_end_nodeIPNS_16__tree_node_baseIPvEEEELi0ELb0EE5__getB7v160006Ev, symObjAddr: 0x2330, symBinAddr: 0x1000058A0, symSize: 0x10 }
  - { offsetInCU: 0x14A87, offset: 0x14A87, size: 0x8, addend: 0x0, symName: __ZNSt3__117__compressed_pairImNS_19__map_value_compareIyNS_12__value_typeIyPN3LOB5LimitEEENS_4lessIyEELb1EEEE5firstB7v160006Ev, symObjAddr: 0x2340, symBinAddr: 0x1000058B0, symSize: 0x20 }
  - { offsetInCU: 0x14AAD, offset: 0x14AAD, size: 0x8, addend: 0x0, symName: __ZNSt3__112__hash_tableINS_17__hash_value_typeIyN3LOB5OrderEEENS_22__unordered_map_hasherIyS4_NS_4hashIyEENS_8equal_toIyEELb1EEENS_21__unordered_map_equalIyS4_S9_S7_Lb1EEENS_9allocatorIS4_EEE5clearEv, symObjAddr: 0x2360, symBinAddr: 0x1000058D0, symSize: 0xD0 }
  - { offsetInCU: 0x14B01, offset: 0x14B01, size: 0x8, addend: 0x0, symName: __ZNSt3__112__hash_tableINS_17__hash_value_typeIyN3LOB5OrderEEENS_22__unordered_map_hasherIyS4_NS_4hashIyEENS_8equal_toIyEELb1EEENS_21__unordered_map_equalIyS4_S9_S7_Lb1EEENS_9allocatorIS4_EEE4sizeB7v160006Ev, symObjAddr: 0x2430, symBinAddr: 0x1000059A0, symSize: 0x20 }
  - { offsetInCU: 0x14B27, offset: 0x14B27, size: 0x8, addend: 0x0, symName: __ZNSt3__112__hash_tableINS_17__hash_value_typeIyN3LOB5OrderEEENS_22__unordered_map_hasherIyS4_NS_4hashIyEENS_8equal_toIyEELb1EEENS_21__unordered_map_equalIyS4_S9_S7_Lb1EEENS_9allocatorIS4_EEE17__deallocate_nodeEPNS_16__hash_node_baseIPNS_11__hash_nodeIS4_PvEEEE, symObjAddr: 0x2450, symBinAddr: 0x1000059C0, symSize: 0xA0 }
  - { offsetInCU: 0x14B92, offset: 0x14B92, size: 0x8, addend: 0x0, symName: __ZNSt3__117__compressed_pairINS_16__hash_node_baseIPNS_11__hash_nodeINS_17__hash_value_typeIyN3LOB5OrderEEEPvEEEENS_9allocatorIS8_EEE5firstB7v160006Ev, symObjAddr: 0x24F0, symBinAddr: 0x100005A60, symSize: 0x20 }
  - { offsetInCU: 0x14BB8, offset: 0x14BB8, size: 0x8, addend: 0x0, symName: __ZNKSt3__112__hash_tableINS_17__hash_value_typeIyN3LOB5OrderEEENS_22__unordered_map_hasherIyS4_NS_4hashIyEENS_8equal_toIyEELb1EEENS_21__unordered_map_equalIyS4_S9_S7_Lb1EEENS_9allocatorIS4_EEE12bucket_countB7v160006Ev, symObjAddr: 0x2510, symBinAddr: 0x100005A80, symSize: 0x30 }
  - { offsetInCU: 0x14BDE, offset: 0x14BDE, size: 0x8, addend: 0x0, symName: __ZNKSt3__110unique_ptrIA_PNS_16__hash_node_baseIPNS_11__hash_nodeINS_17__hash_value_typeIyN3LOB5OrderEEEPvEEEENS_25__bucket_list_deallocatorINS_9allocatorISB_EEEEEixB7v160006Em, symObjAddr: 0x2540, symBinAddr: 0x100005AB0, symSize: 0x30 }
  - { offsetInCU: 0x14C13, offset: 0x14C13, size: 0x8, addend: 0x0, symName: __ZNSt3__117__compressed_pairImNS_22__unordered_map_hasherIyNS_17__hash_value_typeIyN3LOB5OrderEEENS_4hashIyEENS_8equal_toIyEELb1EEEE5firstB7v160006Ev, symObjAddr: 0x2570, symBinAddr: 0x100005AE0, symSize: 0x20 }
  - { offsetInCU: 0x14C39, offset: 0x14C39, size: 0x8, addend: 0x0, symName: __ZNSt3__112__hash_tableINS_17__hash_value_typeIyN3LOB5OrderEEENS_22__unordered_map_hasherIyS4_NS_4hashIyEENS_8equal_toIyEELb1EEENS_21__unordered_map_equalIyS4_S9_S7_Lb1EEENS_9allocatorIS4_EEE12__node_allocB7v160006Ev, symObjAddr: 0x2590, symBinAddr: 0x100005B00, symSize: 0x20 }
  - { offsetInCU: 0x14C5F, offset: 0x14C5F, size: 0x8, addend: 0x0, symName: __ZNSt3__116__hash_node_baseIPNS_11__hash_nodeINS_17__hash_value_typeIyN3LOB5OrderEEEPvEEE8__upcastB7v160006Ev, symObjAddr: 0x25B0, symBinAddr: 0x100005B20, symSize: 0x20 }
  - { offsetInCU: 0x14C85, offset: 0x14C85, size: 0x8, addend: 0x0, symName: __ZNSt3__116allocator_traitsINS_9allocatorINS_11__hash_nodeINS_17__hash_value_typeIyN3LOB5OrderEEEPvEEEEE7destroyB7v160006INS_4pairIKyS5_EEvvEEvRS9_PT_, symObjAddr: 0x25D0, symBinAddr: 0x100005B40, symSize: 0x20 }
  - { offsetInCU: 0x14CC0, offset: 0x14CC0, size: 0x8, addend: 0x0, symName: __ZNSt3__122__hash_key_value_typesINS_17__hash_value_typeIyN3LOB5OrderEEEE9__get_ptrB7v160006ERS4_, symObjAddr: 0x25F0, symBinAddr: 0x100005B60, symSize: 0x20 }
  - { offsetInCU: 0x14CE3, offset: 0x14CE3, size: 0x8, addend: 0x0, symName: __ZNSt3__116allocator_traitsINS_9allocatorINS_11__hash_nodeINS_17__hash_value_typeIyN3LOB5OrderEEEPvEEEEE10deallocateB7v160006ERS9_PS8_m, symObjAddr: 0x2610, symBinAddr: 0x100005B80, symSize: 0x30 }
  - { offsetInCU: 0x14D25, offset: 0x14D25, size: 0x8, addend: 0x0, symName: __ZNSt3__117__compressed_pairINS_16__hash_node_baseIPNS_11__hash_nodeINS_17__hash_value_typeIyN3LOB5OrderEEEPvEEEENS_9allocatorIS8_EEE6secondB7v160006Ev, symObjAddr: 0x2640, symBinAddr: 0x100005BB0, symSize: 0x20 }
  - { offsetInCU: 0x14D4B, offset: 0x14D4B, size: 0x8, addend: 0x0, symName: __ZNSt3__122__compressed_pair_elemINS_9allocatorINS_11__hash_nodeINS_17__hash_value_typeIyN3LOB5OrderEEEPvEEEELi1ELb1EE5__getB7v160006Ev, symObjAddr: 0x2660, symBinAddr: 0x100005BD0, symSize: 0x10 }
  - { offsetInCU: 0x14D71, offset: 0x14D71, size: 0x8, addend: 0x0, symName: __ZNSt3__114pointer_traitsIPNS_16__hash_node_baseIPNS_11__hash_nodeINS_17__hash_value_typeIyN3LOB5OrderEEEPvEEEEE10pointer_toB7v160006ERSA_, symObjAddr: 0x2670, symBinAddr: 0x100005BE0, symSize: 0x10 }
  - { offsetInCU: 0x14D94, offset: 0x14D94, size: 0x8, addend: 0x0, symName: __ZNSt3__117__hash_value_typeIyN3LOB5OrderEE11__get_valueB7v160006Ev, symObjAddr: 0x26B0, symBinAddr: 0x100005C20, symSize: 0x20 }
  - { offsetInCU: 0x14DBA, offset: 0x14DBA, size: 0x8, addend: 0x0, symName: __ZNSt3__19allocatorINS_11__hash_nodeINS_17__hash_value_typeIyN3LOB5OrderEEEPvEEE10deallocateB7v160006EPS7_m, symObjAddr: 0x2700, symBinAddr: 0x100005C70, symSize: 0x40 }
  - { offsetInCU: 0x14DFC, offset: 0x14DFC, size: 0x8, addend: 0x0, symName: __ZNSt3__122__compressed_pair_elemINS_16__hash_node_baseIPNS_11__hash_nodeINS_17__hash_value_typeIyN3LOB5OrderEEEPvEEEELi0ELb0EE5__getB7v160006Ev, symObjAddr: 0x2740, symBinAddr: 0x100005CB0, symSize: 0x10 }
  - { offsetInCU: 0x14E22, offset: 0x14E22, size: 0x8, addend: 0x0, symName: __ZNKSt3__110unique_ptrIA_PNS_16__hash_node_baseIPNS_11__hash_nodeINS_17__hash_value_typeIyN3LOB5OrderEEEPvEEEENS_25__bucket_list_deallocatorINS_9allocatorISB_EEEEE11get_deleterB7v160006Ev, symObjAddr: 0x2750, symBinAddr: 0x100005CC0, symSize: 0x20 }
  - { offsetInCU: 0x14E48, offset: 0x14E48, size: 0x8, addend: 0x0, symName: __ZNKSt3__125__bucket_list_deallocatorINS_9allocatorIPNS_16__hash_node_baseIPNS_11__hash_nodeINS_17__hash_value_typeIyN3LOB5OrderEEEPvEEEEEEE4sizeB7v160006Ev, symObjAddr: 0x2770, symBinAddr: 0x100005CE0, symSize: 0x20 }
  - { offsetInCU: 0x14E6E, offset: 0x14E6E, size: 0x8, addend: 0x0, symName: __ZNKSt3__117__compressed_pairIPPNS_16__hash_node_baseIPNS_11__hash_nodeINS_17__hash_value_typeIyN3LOB5OrderEEEPvEEEENS_25__bucket_list_deallocatorINS_9allocatorISB_EEEEE6secondB7v160006Ev, symObjAddr: 0x2790, symBinAddr: 0x100005D00, symSize: 0x20 }
  - { offsetInCU: 0x14E94, offset: 0x14E94, size: 0x8, addend: 0x0, symName: __ZNKSt3__122__compressed_pair_elemINS_25__bucket_list_deallocatorINS_9allocatorIPNS_16__hash_node_baseIPNS_11__hash_nodeINS_17__hash_value_typeIyN3LOB5OrderEEEPvEEEEEEEELi1ELb0EE5__getB7v160006Ev, symObjAddr: 0x27B0, symBinAddr: 0x100005D20, symSize: 0x10 }
  - { offsetInCU: 0x14EBA, offset: 0x14EBA, size: 0x8, addend: 0x0, symName: __ZNKSt3__117__compressed_pairImNS_9allocatorIPNS_16__hash_node_baseIPNS_11__hash_nodeINS_17__hash_value_typeIyN3LOB5OrderEEEPvEEEEEEE5firstB7v160006Ev, symObjAddr: 0x27C0, symBinAddr: 0x100005D30, symSize: 0x20 }
  - { offsetInCU: 0x14EE0, offset: 0x14EE0, size: 0x8, addend: 0x0, symName: __ZNKSt3__117__compressed_pairIPPNS_16__hash_node_baseIPNS_11__hash_nodeINS_17__hash_value_typeIyN3LOB5OrderEEEPvEEEENS_25__bucket_list_deallocatorINS_9allocatorISB_EEEEE5firstB7v160006Ev, symObjAddr: 0x27E0, symBinAddr: 0x100005D50, symSize: 0x20 }
  - { offsetInCU: 0x14F06, offset: 0x14F06, size: 0x8, addend: 0x0, symName: __ZNKSt3__122__compressed_pair_elemIPPNS_16__hash_node_baseIPNS_11__hash_nodeINS_17__hash_value_typeIyN3LOB5OrderEEEPvEEEELi0ELb0EE5__getB7v160006Ev, symObjAddr: 0x2800, symBinAddr: 0x100005D70, symSize: 0x10 }
  - { offsetInCU: 0x14F2C, offset: 0x14F2C, size: 0x8, addend: 0x0, symName: __ZNSt3__112__hash_tableINS_17__hash_value_typeIyN3LOB5OrderEEENS_22__unordered_map_hasherIyS4_NS_4hashIyEENS_8equal_toIyEELb1EEENS_21__unordered_map_equalIyS4_S9_S7_Lb1EEENS_9allocatorIS4_EEE16__emplace_uniqueB7v160006IRyS3_EENS_9enable_ifIXsr21__can_extract_map_keyIT_yNS_4pairIKyS3_EEEE5valueENSK_INS_15__hash_iteratorIPNS_11__hash_nodeIS4_PvEEEEbEEE4typeEOSJ_OT0_, symObjAddr: 0x2810, symBinAddr: 0x100005D80, symSize: 0x40 }
  - { offsetInCU: 0x14F82, offset: 0x14F82, size: 0x8, addend: 0x0, symName: __ZNSt3__14pairINS_19__hash_map_iteratorINS_15__hash_iteratorIPNS_11__hash_nodeINS_17__hash_value_typeIyN3LOB5OrderEEEPvEEEEEEbEC1B7v160006ISB_bLS8_0EEEONS0_IT_T0_EE, symObjAddr: 0x2850, symBinAddr: 0x100005DC0, symSize: 0x30 }
  - { offsetInCU: 0x14FD3, offset: 0x14FD3, size: 0x8, addend: 0x0, symName: __ZNSt3__112__hash_tableINS_17__hash_value_typeIyN3LOB5OrderEEENS_22__unordered_map_hasherIyS4_NS_4hashIyEENS_8equal_toIyEELb1EEENS_21__unordered_map_equalIyS4_S9_S7_Lb1EEENS_9allocatorIS4_EEE25__emplace_unique_key_argsIyJRyS3_EEENS_4pairINS_15__hash_iteratorIPNS_11__hash_nodeIS4_PvEEEEbEERKT_DpOT0_, symObjAddr: 0x2880, symBinAddr: 0x100005DF0, symSize: 0x600 }
  - { offsetInCU: 0x150C7, offset: 0x150C7, size: 0x8, addend: 0x0, symName: __ZNSt3__112__hash_tableINS_17__hash_value_typeIyN3LOB5OrderEEENS_22__unordered_map_hasherIyS4_NS_4hashIyEENS_8equal_toIyEELb1EEENS_21__unordered_map_equalIyS4_S9_S7_Lb1EEENS_9allocatorIS4_EEE13hash_functionB7v160006Ev, symObjAddr: 0x2E80, symBinAddr: 0x1000063F0, symSize: 0x20 }
  - { offsetInCU: 0x150ED, offset: 0x150ED, size: 0x8, addend: 0x0, symName: __ZNKSt3__122__unordered_map_hasherIyNS_17__hash_value_typeIyN3LOB5OrderEEENS_4hashIyEENS_8equal_toIyEELb1EEclB7v160006ERKy, symObjAddr: 0x2EA0, symBinAddr: 0x100006410, symSize: 0x30 }
  - { offsetInCU: 0x15122, offset: 0x15122, size: 0x8, addend: 0x0, symName: __ZNKSt3__116__hash_node_baseIPNS_11__hash_nodeINS_17__hash_value_typeIyN3LOB5OrderEEEPvEEE6__hashB7v160006Ev, symObjAddr: 0x2F50, symBinAddr: 0x1000064C0, symSize: 0x20 }
  - { offsetInCU: 0x15148, offset: 0x15148, size: 0x8, addend: 0x0, symName: __ZNSt3__112__hash_tableINS_17__hash_value_typeIyN3LOB5OrderEEENS_22__unordered_map_hasherIyS4_NS_4hashIyEENS_8equal_toIyEELb1EEENS_21__unordered_map_equalIyS4_S9_S7_Lb1EEENS_9allocatorIS4_EEE6key_eqB7v160006Ev, symObjAddr: 0x2F70, symBinAddr: 0x1000064E0, symSize: 0x20 }
  - { offsetInCU: 0x1516E, offset: 0x1516E, size: 0x8, addend: 0x0, symName: __ZNKSt3__121__unordered_map_equalIyNS_17__hash_value_typeIyN3LOB5OrderEEENS_8equal_toIyEENS_4hashIyEELb1EEclB7v160006ERKS4_RKy, symObjAddr: 0x2F90, symBinAddr: 0x100006500, symSize: 0x40 }
  - { offsetInCU: 0x151B2, offset: 0x151B2, size: 0x8, addend: 0x0, symName: __ZNSt3__112__hash_tableINS_17__hash_value_typeIyN3LOB5OrderEEENS_22__unordered_map_hasherIyS4_NS_4hashIyEENS_8equal_toIyEELb1EEENS_21__unordered_map_equalIyS4_S9_S7_Lb1EEENS_9allocatorIS4_EEE21__construct_node_hashIRyJS3_EEENS_10unique_ptrINS_11__hash_nodeIS4_PvEENS_22__hash_node_destructorINSD_ISL_EEEEEEmOT_DpOT0_, symObjAddr: 0x2FD0, symBinAddr: 0x100006540, symSize: 0x140 }
  - { offsetInCU: 0x1523A, offset: 0x1523A, size: 0x8, addend: 0x0, symName: __ZNSt3__112__hash_tableINS_17__hash_value_typeIyN3LOB5OrderEEENS_22__unordered_map_hasherIyS4_NS_4hashIyEENS_8equal_toIyEELb1EEENS_21__unordered_map_equalIyS4_S9_S7_Lb1EEENS_9allocatorIS4_EEE15max_load_factorB7v160006Ev, symObjAddr: 0x3110, symBinAddr: 0x100006680, symSize: 0x20 }
  - { offsetInCU: 0x15260, offset: 0x15260, size: 0x8, addend: 0x0, symName: __ZNSt3__112__hash_tableINS_17__hash_value_typeIyN3LOB5OrderEEENS_22__unordered_map_hasherIyS4_NS_4hashIyEENS_8equal_toIyEELb1EEENS_21__unordered_map_equalIyS4_S9_S7_Lb1EEENS_9allocatorIS4_EEE15__rehash_uniqueB7v160006Em, symObjAddr: 0x3130, symBinAddr: 0x1000066A0, symSize: 0x30 }
  - { offsetInCU: 0x15294, offset: 0x15294, size: 0x8, addend: 0x0, symName: __Z4ceilB7v160006f, symObjAddr: 0x31D0, symBinAddr: 0x100006740, symSize: 0x20 }
  - { offsetInCU: 0x152C3, offset: 0x152C3, size: 0x8, addend: 0x0, symName: __ZNSt3__116__hash_node_baseIPNS_11__hash_nodeINS_17__hash_value_typeIyN3LOB5OrderEEEPvEEE5__ptrB7v160006Ev, symObjAddr: 0x31F0, symBinAddr: 0x100006760, symSize: 0x20 }
  - { offsetInCU: 0x152E9, offset: 0x152E9, size: 0x8, addend: 0x0, symName: __ZNKSt3__110unique_ptrINS_11__hash_nodeINS_17__hash_value_typeIyN3LOB5OrderEEEPvEENS_22__hash_node_destructorINS_9allocatorIS7_EEEEEptB7v160006Ev, symObjAddr: 0x3210, symBinAddr: 0x100006780, symSize: 0x20 }
  - { offsetInCU: 0x1530F, offset: 0x1530F, size: 0x8, addend: 0x0, symName: __ZNKSt3__110unique_ptrINS_11__hash_nodeINS_17__hash_value_typeIyN3LOB5OrderEEEPvEENS_22__hash_node_destructorINS_9allocatorIS7_EEEEE3getB7v160006Ev, symObjAddr: 0x3230, symBinAddr: 0x1000067A0, symSize: 0x20 }
  - { offsetInCU: 0x15335, offset: 0x15335, size: 0x8, addend: 0x0, symName: __ZNSt3__110unique_ptrINS_11__hash_nodeINS_17__hash_value_typeIyN3LOB5OrderEEEPvEENS_22__hash_node_destructorINS_9allocatorIS7_EEEEE7releaseB7v160006Ev, symObjAddr: 0x3250, symBinAddr: 0x1000067C0, symSize: 0x40 }
  - { offsetInCU: 0x1536A, offset: 0x1536A, size: 0x8, addend: 0x0, symName: __ZNSt3__110unique_ptrINS_11__hash_nodeINS_17__hash_value_typeIyN3LOB5OrderEEEPvEENS_22__hash_node_destructorINS_9allocatorIS7_EEEEED1B7v160006Ev, symObjAddr: 0x3290, symBinAddr: 0x100006800, symSize: 0x20 }
  - { offsetInCU: 0x15394, offset: 0x15394, size: 0x8, addend: 0x0, symName: __ZNSt3__115__hash_iteratorIPNS_11__hash_nodeINS_17__hash_value_typeIyN3LOB5OrderEEEPvEEEC1B7v160006EPNS_16__hash_node_baseIS8_EEPKv, symObjAddr: 0x32B0, symBinAddr: 0x100006820, symSize: 0x30 }
  - { offsetInCU: 0x153E6, offset: 0x153E6, size: 0x8, addend: 0x0, symName: __ZNSt3__14pairINS_15__hash_iteratorIPNS_11__hash_nodeINS_17__hash_value_typeIyN3LOB5OrderEEEPvEEEEbEC1B7v160006ISA_RbLS7_0EEEOT_OT0_, symObjAddr: 0x32E0, symBinAddr: 0x100006850, symSize: 0x30 }
  - { offsetInCU: 0x15444, offset: 0x15444, size: 0x8, addend: 0x0, symName: __ZNSt3__117__compressed_pairImNS_22__unordered_map_hasherIyNS_17__hash_value_typeIyN3LOB5OrderEEENS_4hashIyEENS_8equal_toIyEELb1EEEE6secondB7v160006Ev, symObjAddr: 0x3310, symBinAddr: 0x100006880, symSize: 0x20 }
  - { offsetInCU: 0x1546A, offset: 0x1546A, size: 0x8, addend: 0x0, symName: __ZNSt3__122__compressed_pair_elemINS_22__unordered_map_hasherIyNS_17__hash_value_typeIyN3LOB5OrderEEENS_4hashIyEENS_8equal_toIyEELb1EEELi1ELb1EE5__getB7v160006Ev, symObjAddr: 0x3330, symBinAddr: 0x1000068A0, symSize: 0x10 }
  - { offsetInCU: 0x15490, offset: 0x15490, size: 0x8, addend: 0x0, symName: __ZNKSt3__113__scalar_hashIyLm1EEclB7v160006Ey, symObjAddr: 0x3340, symBinAddr: 0x1000068B0, symSize: 0x20 }
  - { offsetInCU: 0x154F6, offset: 0x154F6, size: 0x8, addend: 0x0, symName: __ZNSt3__117__compressed_pairIfNS_21__unordered_map_equalIyNS_17__hash_value_typeIyN3LOB5OrderEEENS_8equal_toIyEENS_4hashIyEELb1EEEE6secondB7v160006Ev, symObjAddr: 0x3360, symBinAddr: 0x1000068D0, symSize: 0x20 }
  - { offsetInCU: 0x1551C, offset: 0x1551C, size: 0x8, addend: 0x0, symName: __ZNSt3__122__compressed_pair_elemINS_21__unordered_map_equalIyNS_17__hash_value_typeIyN3LOB5OrderEEENS_8equal_toIyEENS_4hashIyEELb1EEELi1ELb1EE5__getB7v160006Ev, symObjAddr: 0x3380, symBinAddr: 0x1000068F0, symSize: 0x10 }
  - { offsetInCU: 0x15542, offset: 0x15542, size: 0x8, addend: 0x0, symName: __ZNKSt3__18equal_toIyEclB7v160006ERKyS3_, symObjAddr: 0x3390, symBinAddr: 0x100006900, symSize: 0x30 }
  - { offsetInCU: 0x15586, offset: 0x15586, size: 0x8, addend: 0x0, symName: __ZNKSt3__117__hash_value_typeIyN3LOB5OrderEE11__get_valueB7v160006Ev, symObjAddr: 0x33C0, symBinAddr: 0x100006930, symSize: 0x20 }
  - { offsetInCU: 0x155AC, offset: 0x155AC, size: 0x8, addend: 0x0, symName: __ZNSt3__116allocator_traitsINS_9allocatorINS_11__hash_nodeINS_17__hash_value_typeIyN3LOB5OrderEEEPvEEEEE8allocateB7v160006ERS9_m, symObjAddr: 0x3410, symBinAddr: 0x100006980, symSize: 0x30 }
  - { offsetInCU: 0x155DF, offset: 0x155DF, size: 0x8, addend: 0x0, symName: __ZNSt3__122__hash_node_destructorINS_9allocatorINS_11__hash_nodeINS_17__hash_value_typeIyN3LOB5OrderEEEPvEEEEEC1B7v160006ERS9_b, symObjAddr: 0x3440, symBinAddr: 0x1000069B0, symSize: 0x40 }
  - { offsetInCU: 0x1562C, offset: 0x1562C, size: 0x8, addend: 0x0, symName: __ZNSt3__110unique_ptrINS_11__hash_nodeINS_17__hash_value_typeIyN3LOB5OrderEEEPvEENS_22__hash_node_destructorINS_9allocatorIS7_EEEEEC1B7v160006ILb1EvEEPS7_NS_16__dependent_typeINS_27__unique_ptr_deleter_sfinaeISB_EEXT_EE20__good_rval_ref_typeE, symObjAddr: 0x3480, symBinAddr: 0x1000069F0, symSize: 0x30 }
  - { offsetInCU: 0x1567D, offset: 0x1567D, size: 0x8, addend: 0x0, symName: __ZNSt3__116allocator_traitsINS_9allocatorINS_11__hash_nodeINS_17__hash_value_typeIyN3LOB5OrderEEEPvEEEEE9constructB7v160006INS_4pairIKyS5_EEJRyS5_EvvEEvRS9_PT_DpOT0_, symObjAddr: 0x34B0, symBinAddr: 0x100006A20, symSize: 0x30 }
  - { offsetInCU: 0x156E6, offset: 0x156E6, size: 0x8, addend: 0x0, symName: __ZNSt3__110unique_ptrINS_11__hash_nodeINS_17__hash_value_typeIyN3LOB5OrderEEEPvEENS_22__hash_node_destructorINS_9allocatorIS7_EEEEE11get_deleterB7v160006Ev, symObjAddr: 0x34E0, symBinAddr: 0x100006A50, symSize: 0x20 }
  - { offsetInCU: 0x1570C, offset: 0x1570C, size: 0x8, addend: 0x0, symName: __ZNSt3__19allocatorINS_11__hash_nodeINS_17__hash_value_typeIyN3LOB5OrderEEEPvEEE8allocateB7v160006Em, symObjAddr: 0x3500, symBinAddr: 0x100006A70, symSize: 0x50 }
  - { offsetInCU: 0x1574A, offset: 0x1574A, size: 0x8, addend: 0x0, symName: __ZNSt3__116allocator_traitsINS_9allocatorINS_11__hash_nodeINS_17__hash_value_typeIyN3LOB5OrderEEEPvEEEEE8max_sizeB7v160006IS9_vvEEmRKS9_, symObjAddr: 0x3550, symBinAddr: 0x100006AC0, symSize: 0x20 }
  - { offsetInCU: 0x15776, offset: 0x15776, size: 0x8, addend: 0x0, symName: __ZNSt3__114numeric_limitsImE3maxB7v160006Ev, symObjAddr: 0x3610, symBinAddr: 0x100006B80, symSize: 0x10 }
  - { offsetInCU: 0x1578A, offset: 0x1578A, size: 0x8, addend: 0x0, symName: __ZNSt3__123__libcpp_numeric_limitsImLb1EE3maxB7v160006Ev, symObjAddr: 0x3620, symBinAddr: 0x100006B90, symSize: 0x10 }
  - { offsetInCU: 0x1579E, offset: 0x1579E, size: 0x8, addend: 0x0, symName: __ZNSt3__122__hash_node_destructorINS_9allocatorINS_11__hash_nodeINS_17__hash_value_typeIyN3LOB5OrderEEEPvEEEEEC2B7v160006ERS9_b, symObjAddr: 0x3680, symBinAddr: 0x100006BF0, symSize: 0x30 }
  - { offsetInCU: 0x157E6, offset: 0x157E6, size: 0x8, addend: 0x0, symName: __ZNSt3__110unique_ptrINS_11__hash_nodeINS_17__hash_value_typeIyN3LOB5OrderEEEPvEENS_22__hash_node_destructorINS_9allocatorIS7_EEEEEC2B7v160006ILb1EvEEPS7_NS_16__dependent_typeINS_27__unique_ptr_deleter_sfinaeISB_EEXT_EE20__good_rval_ref_typeE, symObjAddr: 0x36B0, symBinAddr: 0x100006C20, symSize: 0x40 }
  - { offsetInCU: 0x15837, offset: 0x15837, size: 0x8, addend: 0x0, symName: __ZNSt3__117__compressed_pairIPNS_11__hash_nodeINS_17__hash_value_typeIyN3LOB5OrderEEEPvEENS_22__hash_node_destructorINS_9allocatorIS7_EEEEEC1B7v160006IRS8_SC_EEOT_OT0_, symObjAddr: 0x36F0, symBinAddr: 0x100006C60, symSize: 0x30 }
  - { offsetInCU: 0x1588F, offset: 0x1588F, size: 0x8, addend: 0x0, symName: __ZNSt3__117__compressed_pairIPNS_11__hash_nodeINS_17__hash_value_typeIyN3LOB5OrderEEEPvEENS_22__hash_node_destructorINS_9allocatorIS7_EEEEEC2B7v160006IRS8_SC_EEOT_OT0_, symObjAddr: 0x3720, symBinAddr: 0x100006C90, symSize: 0x40 }
  - { offsetInCU: 0x158E7, offset: 0x158E7, size: 0x8, addend: 0x0, symName: __ZNSt3__122__compressed_pair_elemIPNS_11__hash_nodeINS_17__hash_value_typeIyN3LOB5OrderEEEPvEELi0ELb0EEC2B7v160006IRS8_vEEOT_, symObjAddr: 0x3760, symBinAddr: 0x100006CD0, symSize: 0x20 }
  - { offsetInCU: 0x15929, offset: 0x15929, size: 0x8, addend: 0x0, symName: __ZNSt3__122__compressed_pair_elemINS_22__hash_node_destructorINS_9allocatorINS_11__hash_nodeINS_17__hash_value_typeIyN3LOB5OrderEEEPvEEEEEELi1ELb0EEC2B7v160006ISB_vEEOT_, symObjAddr: 0x3780, symBinAddr: 0x100006CF0, symSize: 0x30 }
  - { offsetInCU: 0x1596B, offset: 0x1596B, size: 0x8, addend: 0x0, symName: __ZNSt3__14pairIKyN3LOB5OrderEEC1B7v160006IRyS3_LPv0EEEOT_OT0_, symObjAddr: 0x37F0, symBinAddr: 0x100006D60, symSize: 0x30 }
  - { offsetInCU: 0x159C9, offset: 0x159C9, size: 0x8, addend: 0x0, symName: __ZNSt3__14pairIKyN3LOB5OrderEEC2B7v160006IRyS3_LPv0EEEOT_OT0_, symObjAddr: 0x3820, symBinAddr: 0x100006D90, symSize: 0x40 }
  - { offsetInCU: 0x15A27, offset: 0x15A27, size: 0x8, addend: 0x0, symName: __ZNSt3__117__compressed_pairIPNS_11__hash_nodeINS_17__hash_value_typeIyN3LOB5OrderEEEPvEENS_22__hash_node_destructorINS_9allocatorIS7_EEEEE6secondB7v160006Ev, symObjAddr: 0x3860, symBinAddr: 0x100006DD0, symSize: 0x20 }
  - { offsetInCU: 0x15A4D, offset: 0x15A4D, size: 0x8, addend: 0x0, symName: __ZNSt3__122__compressed_pair_elemINS_22__hash_node_destructorINS_9allocatorINS_11__hash_nodeINS_17__hash_value_typeIyN3LOB5OrderEEEPvEEEEEELi1ELb0EE5__getB7v160006Ev, symObjAddr: 0x3880, symBinAddr: 0x100006DF0, symSize: 0x10 }
  - { offsetInCU: 0x15A73, offset: 0x15A73, size: 0x8, addend: 0x0, symName: __ZNSt3__117__compressed_pairIfNS_21__unordered_map_equalIyNS_17__hash_value_typeIyN3LOB5OrderEEENS_8equal_toIyEENS_4hashIyEELb1EEEE5firstB7v160006Ev, symObjAddr: 0x3890, symBinAddr: 0x100006E00, symSize: 0x20 }
  - { offsetInCU: 0x15A99, offset: 0x15A99, size: 0x8, addend: 0x0, symName: __ZNSt3__122__compressed_pair_elemIfLi0ELb0EE5__getB7v160006Ev, symObjAddr: 0x38B0, symBinAddr: 0x100006E20, symSize: 0x10 }
  - { offsetInCU: 0x15ABF, offset: 0x15ABF, size: 0x8, addend: 0x0, symName: __ZNSt3__112__hash_tableINS_17__hash_value_typeIyN3LOB5OrderEEENS_22__unordered_map_hasherIyS4_NS_4hashIyEENS_8equal_toIyEELb1EEENS_21__unordered_map_equalIyS4_S9_S7_Lb1EEENS_9allocatorIS4_EEE8__rehashILb1EEEvm, symObjAddr: 0x38C0, symBinAddr: 0x100006E30, symSize: 0x230 }
  - { offsetInCU: 0x15B0F, offset: 0x15B0F, size: 0x8, addend: 0x0, symName: __ZNSt3__112__hash_tableINS_17__hash_value_typeIyN3LOB5OrderEEENS_22__unordered_map_hasherIyS4_NS_4hashIyEENS_8equal_toIyEELb1EEENS_21__unordered_map_equalIyS4_S9_S7_Lb1EEENS_9allocatorIS4_EEE11__do_rehashILb1EEEvm, symObjAddr: 0x3AF0, symBinAddr: 0x100007060, symSize: 0x260 }
  - { offsetInCU: 0x15BF2, offset: 0x15BF2, size: 0x8, addend: 0x0, symName: __ZNSt3__110unique_ptrIA_PNS_16__hash_node_baseIPNS_11__hash_nodeINS_17__hash_value_typeIyN3LOB5OrderEEEPvEEEENS_25__bucket_list_deallocatorINS_9allocatorISB_EEEEE11get_deleterB7v160006Ev, symObjAddr: 0x3DC0, symBinAddr: 0x100007330, symSize: 0x20 }
  - { offsetInCU: 0x15C18, offset: 0x15C18, size: 0x8, addend: 0x0, symName: __ZNSt3__125__bucket_list_deallocatorINS_9allocatorIPNS_16__hash_node_baseIPNS_11__hash_nodeINS_17__hash_value_typeIyN3LOB5OrderEEEPvEEEEEEE7__allocB7v160006Ev, symObjAddr: 0x3DE0, symBinAddr: 0x100007350, symSize: 0x20 }
  - { offsetInCU: 0x15C3E, offset: 0x15C3E, size: 0x8, addend: 0x0, symName: __ZNSt3__110unique_ptrIA_PNS_16__hash_node_baseIPNS_11__hash_nodeINS_17__hash_value_typeIyN3LOB5OrderEEEPvEEEENS_25__bucket_list_deallocatorINS_9allocatorISB_EEEEE5resetB7v160006IPSB_EENS_9enable_ifIXsr28_CheckArrayPointerConversionIT_EE5valueEvE4typeESL_, symObjAddr: 0x3E00, symBinAddr: 0x100007370, symSize: 0x70 }
  - { offsetInCU: 0x15C8B, offset: 0x15C8B, size: 0x8, addend: 0x0, symName: __ZNSt3__116allocator_traitsINS_9allocatorIPNS_16__hash_node_baseIPNS_11__hash_nodeINS_17__hash_value_typeIyN3LOB5OrderEEEPvEEEEEEE8allocateB7v160006ERSD_m, symObjAddr: 0x3E70, symBinAddr: 0x1000073E0, symSize: 0x30 }
  - { offsetInCU: 0x15CBE, offset: 0x15CBE, size: 0x8, addend: 0x0, symName: __ZNSt3__125__bucket_list_deallocatorINS_9allocatorIPNS_16__hash_node_baseIPNS_11__hash_nodeINS_17__hash_value_typeIyN3LOB5OrderEEEPvEEEEEEE4sizeB7v160006Ev, symObjAddr: 0x3EA0, symBinAddr: 0x100007410, symSize: 0x20 }
  - { offsetInCU: 0x15CE4, offset: 0x15CE4, size: 0x8, addend: 0x0, symName: __ZNSt3__117__compressed_pairIPPNS_16__hash_node_baseIPNS_11__hash_nodeINS_17__hash_value_typeIyN3LOB5OrderEEEPvEEEENS_25__bucket_list_deallocatorINS_9allocatorISB_EEEEE6secondB7v160006Ev, symObjAddr: 0x3EC0, symBinAddr: 0x100007430, symSize: 0x20 }
  - { offsetInCU: 0x15D0A, offset: 0x15D0A, size: 0x8, addend: 0x0, symName: __ZNSt3__122__compressed_pair_elemINS_25__bucket_list_deallocatorINS_9allocatorIPNS_16__hash_node_baseIPNS_11__hash_nodeINS_17__hash_value_typeIyN3LOB5OrderEEEPvEEEEEEEELi1ELb0EE5__getB7v160006Ev, symObjAddr: 0x3EE0, symBinAddr: 0x100007450, symSize: 0x10 }
  - { offsetInCU: 0x15D30, offset: 0x15D30, size: 0x8, addend: 0x0, symName: __ZNSt3__117__compressed_pairImNS_9allocatorIPNS_16__hash_node_baseIPNS_11__hash_nodeINS_17__hash_value_typeIyN3LOB5OrderEEEPvEEEEEEE6secondB7v160006Ev, symObjAddr: 0x3EF0, symBinAddr: 0x100007460, symSize: 0x20 }
  - { offsetInCU: 0x15D56, offset: 0x15D56, size: 0x8, addend: 0x0, symName: __ZNSt3__122__compressed_pair_elemINS_9allocatorIPNS_16__hash_node_baseIPNS_11__hash_nodeINS_17__hash_value_typeIyN3LOB5OrderEEEPvEEEEEELi1ELb1EE5__getB7v160006Ev, symObjAddr: 0x3F10, symBinAddr: 0x100007480, symSize: 0x10 }
  - { offsetInCU: 0x15D7C, offset: 0x15D7C, size: 0x8, addend: 0x0, symName: __ZNSt3__117__compressed_pairIPPNS_16__hash_node_baseIPNS_11__hash_nodeINS_17__hash_value_typeIyN3LOB5OrderEEEPvEEEENS_25__bucket_list_deallocatorINS_9allocatorISB_EEEEE5firstB7v160006Ev, symObjAddr: 0x3F20, symBinAddr: 0x100007490, symSize: 0x20 }
  - { offsetInCU: 0x15DA2, offset: 0x15DA2, size: 0x8, addend: 0x0, symName: __ZNSt3__125__bucket_list_deallocatorINS_9allocatorIPNS_16__hash_node_baseIPNS_11__hash_nodeINS_17__hash_value_typeIyN3LOB5OrderEEEPvEEEEEEEclB7v160006EPSC_, symObjAddr: 0x3F40, symBinAddr: 0x1000074B0, symSize: 0x50 }
  - { offsetInCU: 0x15DD7, offset: 0x15DD7, size: 0x8, addend: 0x0, symName: __ZNSt3__122__compressed_pair_elemIPPNS_16__hash_node_baseIPNS_11__hash_nodeINS_17__hash_value_typeIyN3LOB5OrderEEEPvEEEELi0ELb0EE5__getB7v160006Ev, symObjAddr: 0x3F90, symBinAddr: 0x100007500, symSize: 0x10 }
  - { offsetInCU: 0x15DFD, offset: 0x15DFD, size: 0x8, addend: 0x0, symName: __ZNSt3__116allocator_traitsINS_9allocatorIPNS_16__hash_node_baseIPNS_11__hash_nodeINS_17__hash_value_typeIyN3LOB5OrderEEEPvEEEEEEE10deallocateB7v160006ERSD_PSC_m, symObjAddr: 0x3FA0, symBinAddr: 0x100007510, symSize: 0x30 }
  - { offsetInCU: 0x15E3F, offset: 0x15E3F, size: 0x8, addend: 0x0, symName: __ZNSt3__19allocatorIPNS_16__hash_node_baseIPNS_11__hash_nodeINS_17__hash_value_typeIyN3LOB5OrderEEEPvEEEEE10deallocateB7v160006EPSB_m, symObjAddr: 0x3FD0, symBinAddr: 0x100007540, symSize: 0x40 }
  - { offsetInCU: 0x15E81, offset: 0x15E81, size: 0x8, addend: 0x0, symName: __ZNSt3__19allocatorIPNS_16__hash_node_baseIPNS_11__hash_nodeINS_17__hash_value_typeIyN3LOB5OrderEEEPvEEEEE8allocateB7v160006Em, symObjAddr: 0x4010, symBinAddr: 0x100007580, symSize: 0x50 }
  - { offsetInCU: 0x15EBF, offset: 0x15EBF, size: 0x8, addend: 0x0, symName: __ZNSt3__116allocator_traitsINS_9allocatorIPNS_16__hash_node_baseIPNS_11__hash_nodeINS_17__hash_value_typeIyN3LOB5OrderEEEPvEEEEEEE8max_sizeB7v160006ISD_vvEEmRKSD_, symObjAddr: 0x4060, symBinAddr: 0x1000075D0, symSize: 0x20 }
  - { offsetInCU: 0x15EEB, offset: 0x15EEB, size: 0x8, addend: 0x0, symName: __ZNSt3__117__compressed_pairImNS_9allocatorIPNS_16__hash_node_baseIPNS_11__hash_nodeINS_17__hash_value_typeIyN3LOB5OrderEEEPvEEEEEEE5firstB7v160006Ev, symObjAddr: 0x4080, symBinAddr: 0x1000075F0, symSize: 0x20 }
  - { offsetInCU: 0x15F1B, offset: 0x15F1B, size: 0x8, addend: 0x0, symName: __ZNKSt3__16__lessImmEclB7v160006ERKmS3_, symObjAddr: 0x4110, symBinAddr: 0x100007680, symSize: 0x30 }
  - { offsetInCU: 0x15F5D, offset: 0x15F5D, size: 0x8, addend: 0x0, symName: __ZNKSt3__117__compressed_pairIPNS_11__hash_nodeINS_17__hash_value_typeIyN3LOB5OrderEEEPvEENS_22__hash_node_destructorINS_9allocatorIS7_EEEEE5firstB7v160006Ev, symObjAddr: 0x4140, symBinAddr: 0x1000076B0, symSize: 0x20 }
  - { offsetInCU: 0x15F83, offset: 0x15F83, size: 0x8, addend: 0x0, symName: __ZNKSt3__122__compressed_pair_elemIPNS_11__hash_nodeINS_17__hash_value_typeIyN3LOB5OrderEEEPvEELi0ELb0EE5__getB7v160006Ev, symObjAddr: 0x4160, symBinAddr: 0x1000076D0, symSize: 0x10 }
  - { offsetInCU: 0x15FA9, offset: 0x15FA9, size: 0x8, addend: 0x0, symName: __ZNSt3__117__compressed_pairIPNS_11__hash_nodeINS_17__hash_value_typeIyN3LOB5OrderEEEPvEENS_22__hash_node_destructorINS_9allocatorIS7_EEEEE5firstB7v160006Ev, symObjAddr: 0x4170, symBinAddr: 0x1000076E0, symSize: 0x20 }
  - { offsetInCU: 0x15FCF, offset: 0x15FCF, size: 0x8, addend: 0x0, symName: __ZNSt3__122__compressed_pair_elemIPNS_11__hash_nodeINS_17__hash_value_typeIyN3LOB5OrderEEEPvEELi0ELb0EE5__getB7v160006Ev, symObjAddr: 0x4190, symBinAddr: 0x100007700, symSize: 0x10 }
  - { offsetInCU: 0x15FF5, offset: 0x15FF5, size: 0x8, addend: 0x0, symName: __ZNSt3__110unique_ptrINS_11__hash_nodeINS_17__hash_value_typeIyN3LOB5OrderEEEPvEENS_22__hash_node_destructorINS_9allocatorIS7_EEEEED2B7v160006Ev, symObjAddr: 0x41A0, symBinAddr: 0x100007710, symSize: 0x20 }
  - { offsetInCU: 0x1601F, offset: 0x1601F, size: 0x8, addend: 0x0, symName: __ZNSt3__110unique_ptrINS_11__hash_nodeINS_17__hash_value_typeIyN3LOB5OrderEEEPvEENS_22__hash_node_destructorINS_9allocatorIS7_EEEEE5resetB7v160006EPS7_, symObjAddr: 0x41C0, symBinAddr: 0x100007730, symSize: 0x70 }
  - { offsetInCU: 0x16063, offset: 0x16063, size: 0x8, addend: 0x0, symName: __ZNSt3__122__hash_node_destructorINS_9allocatorINS_11__hash_nodeINS_17__hash_value_typeIyN3LOB5OrderEEEPvEEEEEclB7v160006EPS8_, symObjAddr: 0x4230, symBinAddr: 0x1000077A0, symSize: 0x90 }
  - { offsetInCU: 0x16098, offset: 0x16098, size: 0x8, addend: 0x0, symName: __ZNSt3__115__hash_iteratorIPNS_11__hash_nodeINS_17__hash_value_typeIyN3LOB5OrderEEEPvEEEC2B7v160006EPNS_16__hash_node_baseIS8_EEPKv, symObjAddr: 0x42C0, symBinAddr: 0x100007830, symSize: 0x20 }
  - { offsetInCU: 0x160E0, offset: 0x160E0, size: 0x8, addend: 0x0, symName: __ZNSt3__14pairINS_15__hash_iteratorIPNS_11__hash_nodeINS_17__hash_value_typeIyN3LOB5OrderEEEPvEEEEbEC2B7v160006ISA_RbLS7_0EEEOT_OT0_, symObjAddr: 0x42E0, symBinAddr: 0x100007850, symSize: 0x30 }
  - { offsetInCU: 0x1613E, offset: 0x1613E, size: 0x8, addend: 0x0, symName: __ZNSt3__14pairINS_19__hash_map_iteratorINS_15__hash_iteratorIPNS_11__hash_nodeINS_17__hash_value_typeIyN3LOB5OrderEEEPvEEEEEEbEC2B7v160006ISB_bLS8_0EEEONS0_IT_T0_EE, symObjAddr: 0x4310, symBinAddr: 0x100007880, symSize: 0x50 }
  - { offsetInCU: 0x1618F, offset: 0x1618F, size: 0x8, addend: 0x0, symName: __ZNSt3__119__hash_map_iteratorINS_15__hash_iteratorIPNS_11__hash_nodeINS_17__hash_value_typeIyN3LOB5OrderEEEPvEEEEEC1B7v160006ESA_, symObjAddr: 0x4360, symBinAddr: 0x1000078D0, symSize: 0x30 }
  - { offsetInCU: 0x161C8, offset: 0x161C8, size: 0x8, addend: 0x0, symName: __ZNSt3__119__hash_map_iteratorINS_15__hash_iteratorIPNS_11__hash_nodeINS_17__hash_value_typeIyN3LOB5OrderEEEPvEEEEEC2B7v160006ESA_, symObjAddr: 0x4390, symBinAddr: 0x100007900, symSize: 0x20 }
  - { offsetInCU: 0x16201, offset: 0x16201, size: 0x8, addend: 0x0, symName: __ZNSt3__113unordered_mapIyN3LOB5OrderENS_4hashIyEENS_8equal_toIyEENS_9allocatorINS_4pairIKyS2_EEEEE4findB7v160006ERS9_, symObjAddr: 0x43B0, symBinAddr: 0x100007920, symSize: 0x40 }
  - { offsetInCU: 0x16236, offset: 0x16236, size: 0x8, addend: 0x0, symName: __ZNSt3__113unordered_mapIyN3LOB5OrderENS_4hashIyEENS_8equal_toIyEENS_9allocatorINS_4pairIKyS2_EEEEE3endB7v160006Ev, symObjAddr: 0x4420, symBinAddr: 0x100007990, symSize: 0x30 }
  - { offsetInCU: 0x1625C, offset: 0x1625C, size: 0x8, addend: 0x0, symName: __ZNKSt3__119__hash_map_iteratorINS_15__hash_iteratorIPNS_11__hash_nodeINS_17__hash_value_typeIyN3LOB5OrderEEEPvEEEEEptB7v160006Ev, symObjAddr: 0x44C0, symBinAddr: 0x100007A30, symSize: 0x30 }
  - { offsetInCU: 0x16282, offset: 0x16282, size: 0x8, addend: 0x0, symName: __ZNSt3__112__hash_tableINS_17__hash_value_typeIyN3LOB5OrderEEENS_22__unordered_map_hasherIyS4_NS_4hashIyEENS_8equal_toIyEELb1EEENS_21__unordered_map_equalIyS4_S9_S7_Lb1EEENS_9allocatorIS4_EEE4findIyEENS_15__hash_iteratorIPNS_11__hash_nodeIS4_PvEEEERKT_, symObjAddr: 0x44F0, symBinAddr: 0x100007A60, symSize: 0x180 }
  - { offsetInCU: 0x1630C, offset: 0x1630C, size: 0x8, addend: 0x0, symName: __ZNSt3__112__hash_tableINS_17__hash_value_typeIyN3LOB5OrderEEENS_22__unordered_map_hasherIyS4_NS_4hashIyEENS_8equal_toIyEELb1EEENS_21__unordered_map_equalIyS4_S9_S7_Lb1EEENS_9allocatorIS4_EEE3endEv, symObjAddr: 0x4670, symBinAddr: 0x100007BE0, symSize: 0x30 }
  - { offsetInCU: 0x16334, offset: 0x16334, size: 0x8, addend: 0x0, symName: __ZNSt12out_of_rangeC1B7v160006EPKc, symObjAddr: 0x46D0, symBinAddr: 0x100007C40, symSize: 0x30 }
  - { offsetInCU: 0x1636C, offset: 0x1636C, size: 0x8, addend: 0x0, symName: __ZNSt12out_of_rangeC2B7v160006EPKc, symObjAddr: 0x4700, symBinAddr: 0x100007C70, symSize: 0x40 }
  - { offsetInCU: 0x163A4, offset: 0x163A4, size: 0x8, addend: 0x0, symName: __ZNSt3__114pointer_traitsIPNS_4pairIKyN3LOB5OrderEEEE10pointer_toB7v160006ERS5_, symObjAddr: 0x4740, symBinAddr: 0x100007CB0, symSize: 0x10 }
  - { offsetInCU: 0x163C7, offset: 0x163C7, size: 0x8, addend: 0x0, symName: __ZNKSt3__115__hash_iteratorIPNS_11__hash_nodeINS_17__hash_value_typeIyN3LOB5OrderEEEPvEEEptB7v160006Ev, symObjAddr: 0x4750, symBinAddr: 0x100007CC0, symSize: 0x30 }
  - { offsetInCU: 0x163ED, offset: 0x163ED, size: 0x8, addend: 0x0, symName: __ZNSt3__114pointer_traitsIPNS_17__hash_value_typeIyN3LOB5OrderEEEE10pointer_toB7v160006ERS4_, symObjAddr: 0x4780, symBinAddr: 0x100007CF0, symSize: 0x10 }
  - { offsetInCU: 0x16410, offset: 0x16410, size: 0x8, addend: 0x0, symName: __ZNSt3__112__hash_tableINS_17__hash_value_typeIyN3LOB5OrderEEENS_22__unordered_map_hasherIyS4_NS_4hashIyEENS_8equal_toIyEELb1EEENS_21__unordered_map_equalIyS4_S9_S7_Lb1EEENS_9allocatorIS4_EEE14__erase_uniqueIyEEmRKT_, symObjAddr: 0x4790, symBinAddr: 0x100007D00, symSize: 0x90 }
  - { offsetInCU: 0x1645F, offset: 0x1645F, size: 0x8, addend: 0x0, symName: __ZNSt3__112__hash_tableINS_17__hash_value_typeIyN3LOB5OrderEEENS_22__unordered_map_hasherIyS4_NS_4hashIyEENS_8equal_toIyEELb1EEENS_21__unordered_map_equalIyS4_S9_S7_Lb1EEENS_9allocatorIS4_EEE5eraseENS_21__hash_const_iteratorIPNS_11__hash_nodeIS4_PvEEEE, symObjAddr: 0x4820, symBinAddr: 0x100007D90, symSize: 0x70 }
  - { offsetInCU: 0x164B4, offset: 0x164B4, size: 0x8, addend: 0x0, symName: __ZNSt3__121__hash_const_iteratorIPNS_11__hash_nodeINS_17__hash_value_typeIyN3LOB5OrderEEEPvEEEC1B7v160006ERKNS_15__hash_iteratorIS8_EE, symObjAddr: 0x4890, symBinAddr: 0x100007E00, symSize: 0x30 }
  - { offsetInCU: 0x164ED, offset: 0x164ED, size: 0x8, addend: 0x0, symName: __ZNSt3__115__hash_iteratorIPNS_11__hash_nodeINS_17__hash_value_typeIyN3LOB5OrderEEEPvEEEppB7v160006Ev, symObjAddr: 0x48C0, symBinAddr: 0x100007E30, symSize: 0x20 }
  - { offsetInCU: 0x16513, offset: 0x16513, size: 0x8, addend: 0x0, symName: __ZNSt3__112__hash_tableINS_17__hash_value_typeIyN3LOB5OrderEEENS_22__unordered_map_hasherIyS4_NS_4hashIyEENS_8equal_toIyEELb1EEENS_21__unordered_map_equalIyS4_S9_S7_Lb1EEENS_9allocatorIS4_EEE6removeENS_21__hash_const_iteratorIPNS_11__hash_nodeIS4_PvEEEE, symObjAddr: 0x48E0, symBinAddr: 0x100007E50, symSize: 0x1F0 }
  - { offsetInCU: 0x165A3, offset: 0x165A3, size: 0x8, addend: 0x0, symName: __ZNSt3__121__hash_const_iteratorIPNS_11__hash_nodeINS_17__hash_value_typeIyN3LOB5OrderEEEPvEEEC2B7v160006ERKNS_15__hash_iteratorIS8_EE, symObjAddr: 0x4AD0, symBinAddr: 0x100008040, symSize: 0x20 }
  - { offsetInCU: 0x165DC, offset: 0x165DC, size: 0x8, addend: 0x0, symName: __ZNSt3__14listIN3LOB5OrderENS_9allocatorIS2_EEE5frontB7v160006Ev, symObjAddr: 0x4B30, symBinAddr: 0x1000080A0, symSize: 0x30 }
  - { offsetInCU: 0x1660C, offset: 0x1660C, size: 0x8, addend: 0x0, symName: '__ZZN3LOB14LimitOrderBook8limitBuyEyyyENK3$_0clEy', symObjAddr: 0x4B60, symBinAddr: 0x1000080D0, symSize: 0x30 }
  - { offsetInCU: 0x16644, offset: 0x16644, size: 0x8, addend: 0x0, symName: __ZNKSt3__13mapIyPN3LOB5LimitENS_4lessIyEENS_9allocatorINS_4pairIKyS3_EEEEE5countB7v160006ERS8_, symObjAddr: 0x4B90, symBinAddr: 0x100008100, symSize: 0x30 }
  - { offsetInCU: 0x16679, offset: 0x16679, size: 0x8, addend: 0x0, symName: __ZN3LOB5LimitC1ERNS_5OrderE, symObjAddr: 0x4BC0, symBinAddr: 0x100008130, symSize: 0x30 }
  - { offsetInCU: 0x166B6, offset: 0x166B6, size: 0x8, addend: 0x0, symName: __ZNSt3__13mapIyPN3LOB5LimitENS_4lessIyEENS_9allocatorINS_4pairIKyS3_EEEEE7emplaceB7v160006IJRS8_RS3_EEENS7_INS_14__map_iteratorINS_15__tree_iteratorINS_12__value_typeIyS3_EEPNS_11__tree_nodeISI_PvEElEEEEbEEDpOT_, symObjAddr: 0x4C50, symBinAddr: 0x1000081C0, symSize: 0x50 }
  - { offsetInCU: 0x1670A, offset: 0x1670A, size: 0x8, addend: 0x0, symName: __ZNSt3__13mapIyPN3LOB5LimitENS_4lessIyEENS_9allocatorINS_4pairIKyS3_EEEEEixERS8_, symObjAddr: 0x4CA0, symBinAddr: 0x100008210, symSize: 0x70 }
  - { offsetInCU: 0x16741, offset: 0x16741, size: 0x8, addend: 0x0, symName: __ZNSt3__14listIN3LOB5OrderENS_9allocatorIS2_EEE12emplace_backIJRS2_EEES7_DpOT_, symObjAddr: 0x4D10, symBinAddr: 0x100008280, symSize: 0xF0 }
  - { offsetInCU: 0x167B1, offset: 0x167B1, size: 0x8, addend: 0x0, symName: __ZNSt3__14listIN3LOB5OrderENS_9allocatorIS2_EEE3endB7v160006Ev, symObjAddr: 0x4E50, symBinAddr: 0x1000083C0, symSize: 0x30 }
  - { offsetInCU: 0x167D7, offset: 0x167D7, size: 0x8, addend: 0x0, symName: __ZNSt3__113unordered_mapIiNS_15__list_iteratorIN3LOB5OrderEPvEENS_4hashIiEENS_8equal_toIiEENS_9allocatorINS_4pairIKiS5_EEEEEixEOi, symObjAddr: 0x4E80, symBinAddr: 0x1000083F0, symSize: 0x70 }
  - { offsetInCU: 0x1680E, offset: 0x1680E, size: 0x8, addend: 0x0, symName: __ZNSt3__13mapIyPN3LOB5LimitENS_4lessIyEENS_9allocatorINS_4pairIKyS3_EEEEE2atERS8_, symObjAddr: 0x4EF0, symBinAddr: 0x100008460, symSize: 0x60 }
  - { offsetInCU: 0x16863, offset: 0x16863, size: 0x8, addend: 0x0, symName: __ZNKSt3__16__treeINS_12__value_typeIyPN3LOB5LimitEEENS_19__map_value_compareIyS5_NS_4lessIyEELb1EEENS_9allocatorIS5_EEE14__count_uniqueIyEEmRKT_, symObjAddr: 0x4F50, symBinAddr: 0x1000084C0, symSize: 0xD0 }
  - { offsetInCU: 0x168B2, offset: 0x168B2, size: 0x8, addend: 0x0, symName: __ZNKSt3__16__treeINS_12__value_typeIyPN3LOB5LimitEEENS_19__map_value_compareIyS5_NS_4lessIyEELb1EEENS_9allocatorIS5_EEE10value_compB7v160006Ev, symObjAddr: 0x5020, symBinAddr: 0x100008590, symSize: 0x20 }
  - { offsetInCU: 0x168D8, offset: 0x168D8, size: 0x8, addend: 0x0, symName: __ZNKSt3__119__map_value_compareIyNS_12__value_typeIyPN3LOB5LimitEEENS_4lessIyEELb1EEclB7v160006ERKyRKS5_, symObjAddr: 0x5040, symBinAddr: 0x1000085B0, symSize: 0x50 }
  - { offsetInCU: 0x1691C, offset: 0x1691C, size: 0x8, addend: 0x0, symName: __ZNKSt3__119__map_value_compareIyNS_12__value_typeIyPN3LOB5LimitEEENS_4lessIyEELb1EEclB7v160006ERKS5_RKy, symObjAddr: 0x5090, symBinAddr: 0x100008600, symSize: 0x40 }
  - { offsetInCU: 0x16960, offset: 0x16960, size: 0x8, addend: 0x0, symName: __ZNKSt3__117__compressed_pairImNS_19__map_value_compareIyNS_12__value_typeIyPN3LOB5LimitEEENS_4lessIyEELb1EEEE6secondB7v160006Ev, symObjAddr: 0x50D0, symBinAddr: 0x100008640, symSize: 0x20 }
  - { offsetInCU: 0x16986, offset: 0x16986, size: 0x8, addend: 0x0, symName: __ZNKSt3__122__compressed_pair_elemINS_19__map_value_compareIyNS_12__value_typeIyPN3LOB5LimitEEENS_4lessIyEELb1EEELi1ELb1EE5__getB7v160006Ev, symObjAddr: 0x50F0, symBinAddr: 0x100008660, symSize: 0x10 }
  - { offsetInCU: 0x169AC, offset: 0x169AC, size: 0x8, addend: 0x0, symName: __ZNKSt3__14lessIyEclB7v160006ERKyS3_, symObjAddr: 0x5100, symBinAddr: 0x100008670, symSize: 0x30 }
  - { offsetInCU: 0x169F0, offset: 0x169F0, size: 0x8, addend: 0x0, symName: __ZNKSt3__112__value_typeIyPN3LOB5LimitEE11__get_valueB7v160006Ev, symObjAddr: 0x5130, symBinAddr: 0x1000086A0, symSize: 0x20 }
  - { offsetInCU: 0x16A16, offset: 0x16A16, size: 0x8, addend: 0x0, symName: __ZN3LOB5LimitC2ERNS_5OrderE, symObjAddr: 0x5180, symBinAddr: 0x1000086F0, symSize: 0x60 }
  - { offsetInCU: 0x16A4E, offset: 0x16A4E, size: 0x8, addend: 0x0, symName: __ZNSt3__14listIN3LOB5OrderENS_9allocatorIS2_EEEC1B7v160006Ev, symObjAddr: 0x51E0, symBinAddr: 0x100008750, symSize: 0x20 }
  - { offsetInCU: 0x16A78, offset: 0x16A78, size: 0x8, addend: 0x0, symName: __ZNSt3__113unordered_mapIiNS_15__list_iteratorIN3LOB5OrderEPvEENS_4hashIiEENS_8equal_toIiEENS_9allocatorINS_4pairIKiS5_EEEEEC1B7v160006Ev, symObjAddr: 0x5200, symBinAddr: 0x100008770, symSize: 0x20 }
  - { offsetInCU: 0x16AA2, offset: 0x16AA2, size: 0x8, addend: 0x0, symName: __ZNSt3__14listIN3LOB5OrderENS_9allocatorIS2_EEEC2B7v160006Ev, symObjAddr: 0x5220, symBinAddr: 0x100008790, symSize: 0x40 }
  - { offsetInCU: 0x16ACC, offset: 0x16ACC, size: 0x8, addend: 0x0, symName: __ZNSt3__110__list_impIN3LOB5OrderENS_9allocatorIS2_EEEC2Ev, symObjAddr: 0x5260, symBinAddr: 0x1000087D0, symSize: 0x50 }
  - { offsetInCU: 0x16AF8, offset: 0x16AF8, size: 0x8, addend: 0x0, symName: __ZNSt3__116__list_node_baseIN3LOB5OrderEPvEC1B7v160006Ev, symObjAddr: 0x52C0, symBinAddr: 0x100008830, symSize: 0x20 }
  - { offsetInCU: 0x16B27, offset: 0x16B27, size: 0x8, addend: 0x0, symName: __ZNSt3__117__compressed_pairImNS_9allocatorINS_11__list_nodeIN3LOB5OrderEPvEEEEEC1B7v160006IiNS_18__default_init_tagEEEOT_OT0_, symObjAddr: 0x52E0, symBinAddr: 0x100008850, symSize: 0x30 }
  - { offsetInCU: 0x16B7F, offset: 0x16B7F, size: 0x8, addend: 0x0, symName: __ZNSt3__116__list_node_baseIN3LOB5OrderEPvEC2B7v160006Ev, symObjAddr: 0x5310, symBinAddr: 0x100008880, symSize: 0x50 }
  - { offsetInCU: 0x16BA9, offset: 0x16BA9, size: 0x8, addend: 0x0, symName: __ZNSt3__117__compressed_pairImNS_9allocatorINS_11__list_nodeIN3LOB5OrderEPvEEEEEC2B7v160006IiNS_18__default_init_tagEEEOT_OT0_, symObjAddr: 0x5360, symBinAddr: 0x1000088D0, symSize: 0x40 }
  - { offsetInCU: 0x16C01, offset: 0x16C01, size: 0x8, addend: 0x0, symName: __ZNSt3__122__compressed_pair_elemImLi0ELb0EEC2B7v160006IivEEOT_, symObjAddr: 0x53A0, symBinAddr: 0x100008910, symSize: 0x20 }
  - { offsetInCU: 0x16C43, offset: 0x16C43, size: 0x8, addend: 0x0, symName: __ZNSt3__122__compressed_pair_elemINS_9allocatorINS_11__list_nodeIN3LOB5OrderEPvEEEELi1ELb1EEC2B7v160006ENS_18__default_init_tagE, symObjAddr: 0x53C0, symBinAddr: 0x100008930, symSize: 0x20 }
  - { offsetInCU: 0x16C77, offset: 0x16C77, size: 0x8, addend: 0x0, symName: __ZNSt3__19allocatorINS_11__list_nodeIN3LOB5OrderEPvEEEC2B7v160006Ev, symObjAddr: 0x53E0, symBinAddr: 0x100008950, symSize: 0x20 }
  - { offsetInCU: 0x16CA1, offset: 0x16CA1, size: 0x8, addend: 0x0, symName: __ZNSt3__116__non_trivial_ifILb1ENS_9allocatorINS_11__list_nodeIN3LOB5OrderEPvEEEEEC2B7v160006Ev, symObjAddr: 0x5400, symBinAddr: 0x100008970, symSize: 0x10 }
  - { offsetInCU: 0x16CCB, offset: 0x16CCB, size: 0x8, addend: 0x0, symName: __ZNSt3__113unordered_mapIiNS_15__list_iteratorIN3LOB5OrderEPvEENS_4hashIiEENS_8equal_toIiEENS_9allocatorINS_4pairIKiS5_EEEEEC2B7v160006Ev, symObjAddr: 0x5410, symBinAddr: 0x100008980, symSize: 0x40 }
  - { offsetInCU: 0x16CF5, offset: 0x16CF5, size: 0x8, addend: 0x0, symName: __ZNSt3__112__hash_tableINS_17__hash_value_typeIiNS_15__list_iteratorIN3LOB5OrderEPvEEEENS_22__unordered_map_hasherIiS7_NS_4hashIiEENS_8equal_toIiEELb1EEENS_21__unordered_map_equalIiS7_SC_SA_Lb1EEENS_9allocatorIS7_EEEC1Ev, symObjAddr: 0x5450, symBinAddr: 0x1000089C0, symSize: 0x20 }
  - { offsetInCU: 0x16D21, offset: 0x16D21, size: 0x8, addend: 0x0, symName: __ZNSt3__112__hash_tableINS_17__hash_value_typeIiNS_15__list_iteratorIN3LOB5OrderEPvEEEENS_22__unordered_map_hasherIiS7_NS_4hashIiEENS_8equal_toIiEELb1EEENS_21__unordered_map_equalIiS7_SC_SA_Lb1EEENS_9allocatorIS7_EEEC2Ev, symObjAddr: 0x5480, symBinAddr: 0x1000089F0, symSize: 0x80 }
  - { offsetInCU: 0x16D4D, offset: 0x16D4D, size: 0x8, addend: 0x0, symName: __ZNSt3__110unique_ptrIA_PNS_16__hash_node_baseIPNS_11__hash_nodeINS_17__hash_value_typeIiNS_15__list_iteratorIN3LOB5OrderEPvEEEES7_EEEENS_25__bucket_list_deallocatorINS_9allocatorISD_EEEEEC1B7v160006ILb1EvEEv, symObjAddr: 0x5500, symBinAddr: 0x100008A70, symSize: 0x20 }
  - { offsetInCU: 0x16D82, offset: 0x16D82, size: 0x8, addend: 0x0, symName: __ZNSt3__117__compressed_pairINS_16__hash_node_baseIPNS_11__hash_nodeINS_17__hash_value_typeIiNS_15__list_iteratorIN3LOB5OrderEPvEEEES7_EEEENS_9allocatorISA_EEEC1B7v160006ILb1EvEEv, symObjAddr: 0x5520, symBinAddr: 0x100008A90, symSize: 0x20 }
  - { offsetInCU: 0x16DB7, offset: 0x16DB7, size: 0x8, addend: 0x0, symName: __ZNSt3__117__compressed_pairImNS_22__unordered_map_hasherIiNS_17__hash_value_typeIiNS_15__list_iteratorIN3LOB5OrderEPvEEEENS_4hashIiEENS_8equal_toIiEELb1EEEEC1B7v160006IiNS_18__default_init_tagEEEOT_OT0_, symObjAddr: 0x5540, symBinAddr: 0x100008AB0, symSize: 0x30 }
  - { offsetInCU: 0x16E14, offset: 0x16E14, size: 0x8, addend: 0x0, symName: __ZNSt3__117__compressed_pairIfNS_21__unordered_map_equalIiNS_17__hash_value_typeIiNS_15__list_iteratorIN3LOB5OrderEPvEEEENS_8equal_toIiEENS_4hashIiEELb1EEEEC1B7v160006IfNS_18__default_init_tagEEEOT_OT0_, symObjAddr: 0x5570, symBinAddr: 0x100008AE0, symSize: 0x30 }
  - { offsetInCU: 0x16E6C, offset: 0x16E6C, size: 0x8, addend: 0x0, symName: __ZNSt3__110unique_ptrIA_PNS_16__hash_node_baseIPNS_11__hash_nodeINS_17__hash_value_typeIiNS_15__list_iteratorIN3LOB5OrderEPvEEEES7_EEEENS_25__bucket_list_deallocatorINS_9allocatorISD_EEEEEC2B7v160006ILb1EvEEv, symObjAddr: 0x55A0, symBinAddr: 0x100008B10, symSize: 0x30 }
  - { offsetInCU: 0x16EA6, offset: 0x16EA6, size: 0x8, addend: 0x0, symName: __ZNSt3__117__compressed_pairIPPNS_16__hash_node_baseIPNS_11__hash_nodeINS_17__hash_value_typeIiNS_15__list_iteratorIN3LOB5OrderEPvEEEES7_EEEENS_25__bucket_list_deallocatorINS_9allocatorISD_EEEEEC1B7v160006INS_16__value_init_tagESL_EEOT_OT0_, symObjAddr: 0x55D0, symBinAddr: 0x100008B40, symSize: 0x30 }
  - { offsetInCU: 0x16EFE, offset: 0x16EFE, size: 0x8, addend: 0x0, symName: __ZNSt3__117__compressed_pairIPPNS_16__hash_node_baseIPNS_11__hash_nodeINS_17__hash_value_typeIiNS_15__list_iteratorIN3LOB5OrderEPvEEEES7_EEEENS_25__bucket_list_deallocatorINS_9allocatorISD_EEEEEC2B7v160006INS_16__value_init_tagESL_EEOT_OT0_, symObjAddr: 0x5600, symBinAddr: 0x100008B70, symSize: 0x40 }
  - { offsetInCU: 0x16F56, offset: 0x16F56, size: 0x8, addend: 0x0, symName: __ZNSt3__122__compressed_pair_elemIPPNS_16__hash_node_baseIPNS_11__hash_nodeINS_17__hash_value_typeIiNS_15__list_iteratorIN3LOB5OrderEPvEEEES7_EEEELi0ELb0EEC2B7v160006ENS_16__value_init_tagE, symObjAddr: 0x5640, symBinAddr: 0x100008BB0, symSize: 0x20 }
  - { offsetInCU: 0x16F8A, offset: 0x16F8A, size: 0x8, addend: 0x0, symName: __ZNSt3__122__compressed_pair_elemINS_25__bucket_list_deallocatorINS_9allocatorIPNS_16__hash_node_baseIPNS_11__hash_nodeINS_17__hash_value_typeIiNS_15__list_iteratorIN3LOB5OrderEPvEEEES9_EEEEEEEELi1ELb0EEC2B7v160006ENS_16__value_init_tagE, symObjAddr: 0x5660, symBinAddr: 0x100008BD0, symSize: 0x20 }
  - { offsetInCU: 0x16FBE, offset: 0x16FBE, size: 0x8, addend: 0x0, symName: __ZNSt3__125__bucket_list_deallocatorINS_9allocatorIPNS_16__hash_node_baseIPNS_11__hash_nodeINS_17__hash_value_typeIiNS_15__list_iteratorIN3LOB5OrderEPvEEEES8_EEEEEEEC1B7v160006Ev, symObjAddr: 0x5680, symBinAddr: 0x100008BF0, symSize: 0x20 }
  - { offsetInCU: 0x16FE8, offset: 0x16FE8, size: 0x8, addend: 0x0, symName: __ZNSt3__125__bucket_list_deallocatorINS_9allocatorIPNS_16__hash_node_baseIPNS_11__hash_nodeINS_17__hash_value_typeIiNS_15__list_iteratorIN3LOB5OrderEPvEEEES8_EEEEEEEC2B7v160006Ev, symObjAddr: 0x56A0, symBinAddr: 0x100008C10, symSize: 0x40 }
  - { offsetInCU: 0x17012, offset: 0x17012, size: 0x8, addend: 0x0, symName: __ZNSt3__117__compressed_pairImNS_9allocatorIPNS_16__hash_node_baseIPNS_11__hash_nodeINS_17__hash_value_typeIiNS_15__list_iteratorIN3LOB5OrderEPvEEEES8_EEEEEEEC1B7v160006IiNS_18__default_init_tagEEEOT_OT0_, symObjAddr: 0x56E0, symBinAddr: 0x100008C50, symSize: 0x30 }
  - { offsetInCU: 0x1706A, offset: 0x1706A, size: 0x8, addend: 0x0, symName: __ZNSt3__117__compressed_pairImNS_9allocatorIPNS_16__hash_node_baseIPNS_11__hash_nodeINS_17__hash_value_typeIiNS_15__list_iteratorIN3LOB5OrderEPvEEEES8_EEEEEEEC2B7v160006IiNS_18__default_init_tagEEEOT_OT0_, symObjAddr: 0x5710, symBinAddr: 0x100008C80, symSize: 0x40 }
  - { offsetInCU: 0x170C2, offset: 0x170C2, size: 0x8, addend: 0x0, symName: __ZNSt3__122__compressed_pair_elemINS_9allocatorIPNS_16__hash_node_baseIPNS_11__hash_nodeINS_17__hash_value_typeIiNS_15__list_iteratorIN3LOB5OrderEPvEEEES8_EEEEEELi1ELb1EEC2B7v160006ENS_18__default_init_tagE, symObjAddr: 0x5750, symBinAddr: 0x100008CC0, symSize: 0x20 }
  - { offsetInCU: 0x170F6, offset: 0x170F6, size: 0x8, addend: 0x0, symName: __ZNSt3__19allocatorIPNS_16__hash_node_baseIPNS_11__hash_nodeINS_17__hash_value_typeIiNS_15__list_iteratorIN3LOB5OrderEPvEEEES7_EEEEEC2B7v160006Ev, symObjAddr: 0x5770, symBinAddr: 0x100008CE0, symSize: 0x20 }
  - { offsetInCU: 0x17120, offset: 0x17120, size: 0x8, addend: 0x0, symName: __ZNSt3__116__non_trivial_ifILb1ENS_9allocatorIPNS_16__hash_node_baseIPNS_11__hash_nodeINS_17__hash_value_typeIiNS_15__list_iteratorIN3LOB5OrderEPvEEEES8_EEEEEEEC2B7v160006Ev, symObjAddr: 0x5790, symBinAddr: 0x100008D00, symSize: 0x10 }
  - { offsetInCU: 0x1714A, offset: 0x1714A, size: 0x8, addend: 0x0, symName: __ZNSt3__117__compressed_pairINS_16__hash_node_baseIPNS_11__hash_nodeINS_17__hash_value_typeIiNS_15__list_iteratorIN3LOB5OrderEPvEEEES7_EEEENS_9allocatorISA_EEEC2B7v160006ILb1EvEEv, symObjAddr: 0x57A0, symBinAddr: 0x100008D10, symSize: 0x30 }
  - { offsetInCU: 0x1717F, offset: 0x1717F, size: 0x8, addend: 0x0, symName: __ZNSt3__122__compressed_pair_elemINS_16__hash_node_baseIPNS_11__hash_nodeINS_17__hash_value_typeIiNS_15__list_iteratorIN3LOB5OrderEPvEEEES7_EEEELi0ELb0EEC2B7v160006ENS_16__value_init_tagE, symObjAddr: 0x57D0, symBinAddr: 0x100008D40, symSize: 0x20 }
  - { offsetInCU: 0x171B3, offset: 0x171B3, size: 0x8, addend: 0x0, symName: __ZNSt3__122__compressed_pair_elemINS_9allocatorINS_11__hash_nodeINS_17__hash_value_typeIiNS_15__list_iteratorIN3LOB5OrderEPvEEEES7_EEEELi1ELb1EEC2B7v160006ENS_16__value_init_tagE, symObjAddr: 0x57F0, symBinAddr: 0x100008D60, symSize: 0x20 }
  - { offsetInCU: 0x171E7, offset: 0x171E7, size: 0x8, addend: 0x0, symName: __ZNSt3__116__hash_node_baseIPNS_11__hash_nodeINS_17__hash_value_typeIiNS_15__list_iteratorIN3LOB5OrderEPvEEEES6_EEEC1B7v160006Ev, symObjAddr: 0x5810, symBinAddr: 0x100008D80, symSize: 0x20 }
  - { offsetInCU: 0x17211, offset: 0x17211, size: 0x8, addend: 0x0, symName: __ZNSt3__116__hash_node_baseIPNS_11__hash_nodeINS_17__hash_value_typeIiNS_15__list_iteratorIN3LOB5OrderEPvEEEES6_EEEC2B7v160006Ev, symObjAddr: 0x5830, symBinAddr: 0x100008DA0, symSize: 0x20 }
  - { offsetInCU: 0x1723B, offset: 0x1723B, size: 0x8, addend: 0x0, symName: __ZNSt3__19allocatorINS_11__hash_nodeINS_17__hash_value_typeIiNS_15__list_iteratorIN3LOB5OrderEPvEEEES6_EEEC2B7v160006Ev, symObjAddr: 0x5850, symBinAddr: 0x100008DC0, symSize: 0x20 }
  - { offsetInCU: 0x17265, offset: 0x17265, size: 0x8, addend: 0x0, symName: __ZNSt3__116__non_trivial_ifILb1ENS_9allocatorINS_11__hash_nodeINS_17__hash_value_typeIiNS_15__list_iteratorIN3LOB5OrderEPvEEEES7_EEEEEC2B7v160006Ev, symObjAddr: 0x5870, symBinAddr: 0x100008DE0, symSize: 0x10 }
  - { offsetInCU: 0x1728F, offset: 0x1728F, size: 0x8, addend: 0x0, symName: __ZNSt3__117__compressed_pairImNS_22__unordered_map_hasherIiNS_17__hash_value_typeIiNS_15__list_iteratorIN3LOB5OrderEPvEEEENS_4hashIiEENS_8equal_toIiEELb1EEEEC2B7v160006IiNS_18__default_init_tagEEEOT_OT0_, symObjAddr: 0x5880, symBinAddr: 0x100008DF0, symSize: 0x40 }
  - { offsetInCU: 0x172E7, offset: 0x172E7, size: 0x8, addend: 0x0, symName: __ZNSt3__122__compressed_pair_elemINS_22__unordered_map_hasherIiNS_17__hash_value_typeIiNS_15__list_iteratorIN3LOB5OrderEPvEEEENS_4hashIiEENS_8equal_toIiEELb1EEELi1ELb1EEC2B7v160006ENS_18__default_init_tagE, symObjAddr: 0x58C0, symBinAddr: 0x100008E30, symSize: 0x20 }
  - { offsetInCU: 0x1731B, offset: 0x1731B, size: 0x8, addend: 0x0, symName: __ZNSt3__122__unordered_map_hasherIiNS_17__hash_value_typeIiNS_15__list_iteratorIN3LOB5OrderEPvEEEENS_4hashIiEENS_8equal_toIiEELb1EEC2B7v160006Ev, symObjAddr: 0x58E0, symBinAddr: 0x100008E50, symSize: 0x10 }
  - { offsetInCU: 0x17345, offset: 0x17345, size: 0x8, addend: 0x0, symName: __ZNSt3__117__compressed_pairIfNS_21__unordered_map_equalIiNS_17__hash_value_typeIiNS_15__list_iteratorIN3LOB5OrderEPvEEEENS_8equal_toIiEENS_4hashIiEELb1EEEEC2B7v160006IfNS_18__default_init_tagEEEOT_OT0_, symObjAddr: 0x58F0, symBinAddr: 0x100008E60, symSize: 0x40 }
  - { offsetInCU: 0x1739D, offset: 0x1739D, size: 0x8, addend: 0x0, symName: __ZNSt3__122__compressed_pair_elemIfLi0ELb0EEC2B7v160006IfvEEOT_, symObjAddr: 0x5930, symBinAddr: 0x100008EA0, symSize: 0x20 }
  - { offsetInCU: 0x173DF, offset: 0x173DF, size: 0x8, addend: 0x0, symName: __ZNSt3__122__compressed_pair_elemINS_21__unordered_map_equalIiNS_17__hash_value_typeIiNS_15__list_iteratorIN3LOB5OrderEPvEEEENS_8equal_toIiEENS_4hashIiEELb1EEELi1ELb1EEC2B7v160006ENS_18__default_init_tagE, symObjAddr: 0x5950, symBinAddr: 0x100008EC0, symSize: 0x20 }
  - { offsetInCU: 0x17413, offset: 0x17413, size: 0x8, addend: 0x0, symName: __ZNSt3__121__unordered_map_equalIiNS_17__hash_value_typeIiNS_15__list_iteratorIN3LOB5OrderEPvEEEENS_8equal_toIiEENS_4hashIiEELb1EEC2B7v160006Ev, symObjAddr: 0x5970, symBinAddr: 0x100008EE0, symSize: 0x10 }
  - { offsetInCU: 0x1743D, offset: 0x1743D, size: 0x8, addend: 0x0, symName: __ZNSt3__16__treeINS_12__value_typeIyPN3LOB5LimitEEENS_19__map_value_compareIyS5_NS_4lessIyEELb1EEENS_9allocatorIS5_EEE16__emplace_uniqueB7v160006IRKyRS4_EENS_9enable_ifIXsr21__can_extract_map_keyIT_yNS_4pairISE_S4_EEEE5valueENSJ_INS_15__tree_iteratorIS5_PNS_11__tree_nodeIS5_PvEElEEbEEE4typeEOSI_OT0_, symObjAddr: 0x5980, symBinAddr: 0x100008EF0, symSize: 0x40 }
  - { offsetInCU: 0x17493, offset: 0x17493, size: 0x8, addend: 0x0, symName: __ZNSt3__14pairINS_14__map_iteratorINS_15__tree_iteratorINS_12__value_typeIyPN3LOB5LimitEEEPNS_11__tree_nodeIS7_PvEElEEEEbEC1B7v160006ISC_bLS9_0EEEONS0_IT_T0_EE, symObjAddr: 0x59C0, symBinAddr: 0x100008F30, symSize: 0x30 }
  - { offsetInCU: 0x174E4, offset: 0x174E4, size: 0x8, addend: 0x0, symName: __ZNSt3__16__treeINS_12__value_typeIyPN3LOB5LimitEEENS_19__map_value_compareIyS5_NS_4lessIyEELb1EEENS_9allocatorIS5_EEE25__emplace_unique_key_argsIyJRKyRS4_EEENS_4pairINS_15__tree_iteratorIS5_PNS_11__tree_nodeIS5_PvEElEEbEERKT_DpOT0_, symObjAddr: 0x59F0, symBinAddr: 0x100008F60, symSize: 0xF0 }
  - { offsetInCU: 0x175AE, offset: 0x175AE, size: 0x8, addend: 0x0, symName: __ZNSt3__16__treeINS_12__value_typeIyPN3LOB5LimitEEENS_19__map_value_compareIyS5_NS_4lessIyEELb1EEENS_9allocatorIS5_EEE12__find_equalIyEERPNS_16__tree_node_baseIPvEERPNS_15__tree_end_nodeISH_EERKT_, symObjAddr: 0x5AE0, symBinAddr: 0x100009050, symSize: 0x180 }
  - { offsetInCU: 0x1761B, offset: 0x1761B, size: 0x8, addend: 0x0, symName: __ZNSt3__16__treeINS_12__value_typeIyPN3LOB5LimitEEENS_19__map_value_compareIyS5_NS_4lessIyEELb1EEENS_9allocatorIS5_EEE16__construct_nodeIJRKyRS4_EEENS_10unique_ptrINS_11__tree_nodeIS5_PvEENS_22__tree_node_destructorINSA_ISK_EEEEEEDpOT_, symObjAddr: 0x5C60, symBinAddr: 0x1000091D0, symSize: 0x100 }
  - { offsetInCU: 0x17690, offset: 0x17690, size: 0x8, addend: 0x0, symName: __ZNSt3__16__treeINS_12__value_typeIyPN3LOB5LimitEEENS_19__map_value_compareIyS5_NS_4lessIyEELb1EEENS_9allocatorIS5_EEE16__insert_node_atEPNS_15__tree_end_nodeIPNS_16__tree_node_baseIPvEEEERSH_SH_, symObjAddr: 0x5D60, symBinAddr: 0x1000092D0, symSize: 0xC0 }
  - { offsetInCU: 0x176E5, offset: 0x176E5, size: 0x8, addend: 0x0, symName: __ZNKSt3__110unique_ptrINS_11__tree_nodeINS_12__value_typeIyPN3LOB5LimitEEEPvEENS_22__tree_node_destructorINS_9allocatorIS8_EEEEE3getB7v160006Ev, symObjAddr: 0x5E20, symBinAddr: 0x100009390, symSize: 0x20 }
  - { offsetInCU: 0x1770B, offset: 0x1770B, size: 0x8, addend: 0x0, symName: __ZNSt3__110unique_ptrINS_11__tree_nodeINS_12__value_typeIyPN3LOB5LimitEEEPvEENS_22__tree_node_destructorINS_9allocatorIS8_EEEEE7releaseB7v160006Ev, symObjAddr: 0x5E40, symBinAddr: 0x1000093B0, symSize: 0x40 }
  - { offsetInCU: 0x17740, offset: 0x17740, size: 0x8, addend: 0x0, symName: __ZNSt3__110unique_ptrINS_11__tree_nodeINS_12__value_typeIyPN3LOB5LimitEEEPvEENS_22__tree_node_destructorINS_9allocatorIS8_EEEEED1B7v160006Ev, symObjAddr: 0x5E80, symBinAddr: 0x1000093F0, symSize: 0x20 }
  - { offsetInCU: 0x1776A, offset: 0x1776A, size: 0x8, addend: 0x0, symName: __ZNSt3__115__tree_iteratorINS_12__value_typeIyPN3LOB5LimitEEEPNS_11__tree_nodeIS5_PvEElEC1B7v160006ES9_, symObjAddr: 0x5EA0, symBinAddr: 0x100009410, symSize: 0x30 }
  - { offsetInCU: 0x177A8, offset: 0x177A8, size: 0x8, addend: 0x0, symName: __ZNSt3__14pairINS_15__tree_iteratorINS_12__value_typeIyPN3LOB5LimitEEEPNS_11__tree_nodeIS6_PvEElEEbEC1B7v160006ISB_RbLS8_0EEEOT_OT0_, symObjAddr: 0x5ED0, symBinAddr: 0x100009440, symSize: 0x30 }
  - { offsetInCU: 0x17806, offset: 0x17806, size: 0x8, addend: 0x0, symName: __ZNKSt3__16__treeINS_12__value_typeIyPN3LOB5LimitEEENS_19__map_value_compareIyS5_NS_4lessIyEELb1EEENS_9allocatorIS5_EEE10__root_ptrEv, symObjAddr: 0x5F00, symBinAddr: 0x100009470, symSize: 0x20 }
  - { offsetInCU: 0x1782C, offset: 0x1782C, size: 0x8, addend: 0x0, symName: __ZNSt3__16__treeINS_12__value_typeIyPN3LOB5LimitEEENS_19__map_value_compareIyS5_NS_4lessIyEELb1EEENS_9allocatorIS5_EEE10value_compB7v160006Ev, symObjAddr: 0x5F20, symBinAddr: 0x100009490, symSize: 0x20 }
  - { offsetInCU: 0x17852, offset: 0x17852, size: 0x8, addend: 0x0, symName: __ZNSt3__117__compressed_pairImNS_19__map_value_compareIyNS_12__value_typeIyPN3LOB5LimitEEENS_4lessIyEELb1EEEE6secondB7v160006Ev, symObjAddr: 0x5F40, symBinAddr: 0x1000094B0, symSize: 0x20 }
  - { offsetInCU: 0x17878, offset: 0x17878, size: 0x8, addend: 0x0, symName: __ZNSt3__122__compressed_pair_elemINS_19__map_value_compareIyNS_12__value_typeIyPN3LOB5LimitEEENS_4lessIyEELb1EEELi1ELb1EE5__getB7v160006Ev, symObjAddr: 0x5F60, symBinAddr: 0x1000094D0, symSize: 0x10 }
  - { offsetInCU: 0x1789E, offset: 0x1789E, size: 0x8, addend: 0x0, symName: __ZNSt3__116allocator_traitsINS_9allocatorINS_11__tree_nodeINS_12__value_typeIyPN3LOB5LimitEEEPvEEEEE8allocateB7v160006ERSA_m, symObjAddr: 0x5F70, symBinAddr: 0x1000094E0, symSize: 0x30 }
  - { offsetInCU: 0x178D1, offset: 0x178D1, size: 0x8, addend: 0x0, symName: __ZNSt3__122__tree_node_destructorINS_9allocatorINS_11__tree_nodeINS_12__value_typeIyPN3LOB5LimitEEEPvEEEEEC1B7v160006ERSA_b, symObjAddr: 0x5FA0, symBinAddr: 0x100009510, symSize: 0x40 }
  - { offsetInCU: 0x1791E, offset: 0x1791E, size: 0x8, addend: 0x0, symName: __ZNSt3__110unique_ptrINS_11__tree_nodeINS_12__value_typeIyPN3LOB5LimitEEEPvEENS_22__tree_node_destructorINS_9allocatorIS8_EEEEEC1B7v160006ILb1EvEEPS8_NS_16__dependent_typeINS_27__unique_ptr_deleter_sfinaeISC_EEXT_EE20__good_rval_ref_typeE, symObjAddr: 0x5FE0, symBinAddr: 0x100009550, symSize: 0x30 }
  - { offsetInCU: 0x1796F, offset: 0x1796F, size: 0x8, addend: 0x0, symName: __ZNSt3__116allocator_traitsINS_9allocatorINS_11__tree_nodeINS_12__value_typeIyPN3LOB5LimitEEEPvEEEEE9constructB7v160006INS_4pairIKyS6_EEJRSE_RS6_EvvEEvRSA_PT_DpOT0_, symObjAddr: 0x6010, symBinAddr: 0x100009580, symSize: 0x30 }
  - { offsetInCU: 0x179D8, offset: 0x179D8, size: 0x8, addend: 0x0, symName: __ZNKSt3__110unique_ptrINS_11__tree_nodeINS_12__value_typeIyPN3LOB5LimitEEEPvEENS_22__tree_node_destructorINS_9allocatorIS8_EEEEEptB7v160006Ev, symObjAddr: 0x6040, symBinAddr: 0x1000095B0, symSize: 0x20 }
  - { offsetInCU: 0x179FE, offset: 0x179FE, size: 0x8, addend: 0x0, symName: __ZNSt3__110unique_ptrINS_11__tree_nodeINS_12__value_typeIyPN3LOB5LimitEEEPvEENS_22__tree_node_destructorINS_9allocatorIS8_EEEEE11get_deleterB7v160006Ev, symObjAddr: 0x6060, symBinAddr: 0x1000095D0, symSize: 0x20 }
  - { offsetInCU: 0x17A24, offset: 0x17A24, size: 0x8, addend: 0x0, symName: __ZNSt3__19allocatorINS_11__tree_nodeINS_12__value_typeIyPN3LOB5LimitEEEPvEEE8allocateB7v160006Em, symObjAddr: 0x6080, symBinAddr: 0x1000095F0, symSize: 0x50 }
  - { offsetInCU: 0x17A62, offset: 0x17A62, size: 0x8, addend: 0x0, symName: __ZNSt3__116allocator_traitsINS_9allocatorINS_11__tree_nodeINS_12__value_typeIyPN3LOB5LimitEEEPvEEEEE8max_sizeB7v160006ISA_vvEEmRKSA_, symObjAddr: 0x60D0, symBinAddr: 0x100009640, symSize: 0x30 }
  - { offsetInCU: 0x17A8E, offset: 0x17A8E, size: 0x8, addend: 0x0, symName: __ZNSt3__122__tree_node_destructorINS_9allocatorINS_11__tree_nodeINS_12__value_typeIyPN3LOB5LimitEEEPvEEEEEC2B7v160006ERSA_b, symObjAddr: 0x6100, symBinAddr: 0x100009670, symSize: 0x30 }
  - { offsetInCU: 0x17AD6, offset: 0x17AD6, size: 0x8, addend: 0x0, symName: __ZNSt3__110unique_ptrINS_11__tree_nodeINS_12__value_typeIyPN3LOB5LimitEEEPvEENS_22__tree_node_destructorINS_9allocatorIS8_EEEEEC2B7v160006ILb1EvEEPS8_NS_16__dependent_typeINS_27__unique_ptr_deleter_sfinaeISC_EEXT_EE20__good_rval_ref_typeE, symObjAddr: 0x6130, symBinAddr: 0x1000096A0, symSize: 0x40 }
  - { offsetInCU: 0x17B27, offset: 0x17B27, size: 0x8, addend: 0x0, symName: __ZNSt3__117__compressed_pairIPNS_11__tree_nodeINS_12__value_typeIyPN3LOB5LimitEEEPvEENS_22__tree_node_destructorINS_9allocatorIS8_EEEEEC1B7v160006IRS9_SD_EEOT_OT0_, symObjAddr: 0x6170, symBinAddr: 0x1000096E0, symSize: 0x30 }
  - { offsetInCU: 0x17B7F, offset: 0x17B7F, size: 0x8, addend: 0x0, symName: __ZNSt3__117__compressed_pairIPNS_11__tree_nodeINS_12__value_typeIyPN3LOB5LimitEEEPvEENS_22__tree_node_destructorINS_9allocatorIS8_EEEEEC2B7v160006IRS9_SD_EEOT_OT0_, symObjAddr: 0x61A0, symBinAddr: 0x100009710, symSize: 0x40 }
  - { offsetInCU: 0x17BD7, offset: 0x17BD7, size: 0x8, addend: 0x0, symName: __ZNSt3__122__compressed_pair_elemIPNS_11__tree_nodeINS_12__value_typeIyPN3LOB5LimitEEEPvEELi0ELb0EEC2B7v160006IRS9_vEEOT_, symObjAddr: 0x61E0, symBinAddr: 0x100009750, symSize: 0x20 }
  - { offsetInCU: 0x17C19, offset: 0x17C19, size: 0x8, addend: 0x0, symName: __ZNSt3__122__compressed_pair_elemINS_22__tree_node_destructorINS_9allocatorINS_11__tree_nodeINS_12__value_typeIyPN3LOB5LimitEEEPvEEEEEELi1ELb0EEC2B7v160006ISC_vEEOT_, symObjAddr: 0x6200, symBinAddr: 0x100009770, symSize: 0x30 }
  - { offsetInCU: 0x17C5B, offset: 0x17C5B, size: 0x8, addend: 0x0, symName: __ZNSt3__14pairIKyPN3LOB5LimitEEC1B7v160006IRS1_RS4_LPv0EEEOT_OT0_, symObjAddr: 0x6270, symBinAddr: 0x1000097E0, symSize: 0x30 }
  - { offsetInCU: 0x17CB9, offset: 0x17CB9, size: 0x8, addend: 0x0, symName: __ZNSt3__14pairIKyPN3LOB5LimitEEC2B7v160006IRS1_RS4_LPv0EEEOT_OT0_, symObjAddr: 0x62A0, symBinAddr: 0x100009810, symSize: 0x30 }
  - { offsetInCU: 0x17D17, offset: 0x17D17, size: 0x8, addend: 0x0, symName: __ZNKSt3__117__compressed_pairIPNS_11__tree_nodeINS_12__value_typeIyPN3LOB5LimitEEEPvEENS_22__tree_node_destructorINS_9allocatorIS8_EEEEE5firstB7v160006Ev, symObjAddr: 0x62D0, symBinAddr: 0x100009840, symSize: 0x20 }
  - { offsetInCU: 0x17D3D, offset: 0x17D3D, size: 0x8, addend: 0x0, symName: __ZNKSt3__122__compressed_pair_elemIPNS_11__tree_nodeINS_12__value_typeIyPN3LOB5LimitEEEPvEELi0ELb0EE5__getB7v160006Ev, symObjAddr: 0x62F0, symBinAddr: 0x100009860, symSize: 0x10 }
  - { offsetInCU: 0x17D63, offset: 0x17D63, size: 0x8, addend: 0x0, symName: __ZNSt3__117__compressed_pairIPNS_11__tree_nodeINS_12__value_typeIyPN3LOB5LimitEEEPvEENS_22__tree_node_destructorINS_9allocatorIS8_EEEEE6secondB7v160006Ev, symObjAddr: 0x6300, symBinAddr: 0x100009870, symSize: 0x20 }
  - { offsetInCU: 0x17D89, offset: 0x17D89, size: 0x8, addend: 0x0, symName: __ZNSt3__122__compressed_pair_elemINS_22__tree_node_destructorINS_9allocatorINS_11__tree_nodeINS_12__value_typeIyPN3LOB5LimitEEEPvEEEEEELi1ELb0EE5__getB7v160006Ev, symObjAddr: 0x6320, symBinAddr: 0x100009890, symSize: 0x10 }
  - { offsetInCU: 0x17DAF, offset: 0x17DAF, size: 0x8, addend: 0x0, symName: __ZNSt3__116__tree_node_baseIPvE12__set_parentB7v160006EPS2_, symObjAddr: 0x6700, symBinAddr: 0x100009C70, symSize: 0x20 }
  - { offsetInCU: 0x17DE4, offset: 0x17DE4, size: 0x8, addend: 0x0, symName: __ZNSt3__117__compressed_pairIPNS_11__tree_nodeINS_12__value_typeIyPN3LOB5LimitEEEPvEENS_22__tree_node_destructorINS_9allocatorIS8_EEEEE5firstB7v160006Ev, symObjAddr: 0x6720, symBinAddr: 0x100009C90, symSize: 0x20 }
  - { offsetInCU: 0x17E0A, offset: 0x17E0A, size: 0x8, addend: 0x0, symName: __ZNSt3__122__compressed_pair_elemIPNS_11__tree_nodeINS_12__value_typeIyPN3LOB5LimitEEEPvEELi0ELb0EE5__getB7v160006Ev, symObjAddr: 0x6740, symBinAddr: 0x100009CB0, symSize: 0x10 }
  - { offsetInCU: 0x17E30, offset: 0x17E30, size: 0x8, addend: 0x0, symName: __ZNSt3__110unique_ptrINS_11__tree_nodeINS_12__value_typeIyPN3LOB5LimitEEEPvEENS_22__tree_node_destructorINS_9allocatorIS8_EEEEED2B7v160006Ev, symObjAddr: 0x6750, symBinAddr: 0x100009CC0, symSize: 0x20 }
  - { offsetInCU: 0x17E5A, offset: 0x17E5A, size: 0x8, addend: 0x0, symName: __ZNSt3__110unique_ptrINS_11__tree_nodeINS_12__value_typeIyPN3LOB5LimitEEEPvEENS_22__tree_node_destructorINS_9allocatorIS8_EEEEE5resetB7v160006EPS8_, symObjAddr: 0x6770, symBinAddr: 0x100009CE0, symSize: 0x70 }
  - { offsetInCU: 0x17E9E, offset: 0x17E9E, size: 0x8, addend: 0x0, symName: __ZNSt3__122__tree_node_destructorINS_9allocatorINS_11__tree_nodeINS_12__value_typeIyPN3LOB5LimitEEEPvEEEEEclB7v160006EPS9_, symObjAddr: 0x67E0, symBinAddr: 0x100009D50, symSize: 0x80 }
  - { offsetInCU: 0x17ED3, offset: 0x17ED3, size: 0x8, addend: 0x0, symName: __ZNSt3__115__tree_iteratorINS_12__value_typeIyPN3LOB5LimitEEEPNS_11__tree_nodeIS5_PvEElEC2B7v160006ES9_, symObjAddr: 0x6860, symBinAddr: 0x100009DD0, symSize: 0x20 }
  - { offsetInCU: 0x17F0C, offset: 0x17F0C, size: 0x8, addend: 0x0, symName: __ZNSt3__14pairINS_15__tree_iteratorINS_12__value_typeIyPN3LOB5LimitEEEPNS_11__tree_nodeIS6_PvEElEEbEC2B7v160006ISB_RbLS8_0EEEOT_OT0_, symObjAddr: 0x6880, symBinAddr: 0x100009DF0, symSize: 0x30 }
  - { offsetInCU: 0x17F6A, offset: 0x17F6A, size: 0x8, addend: 0x0, symName: __ZNSt3__14pairINS_14__map_iteratorINS_15__tree_iteratorINS_12__value_typeIyPN3LOB5LimitEEEPNS_11__tree_nodeIS7_PvEElEEEEbEC2B7v160006ISC_bLS9_0EEEONS0_IT_T0_EE, symObjAddr: 0x68B0, symBinAddr: 0x100009E20, symSize: 0x50 }
  - { offsetInCU: 0x17FCF, offset: 0x17FCF, size: 0x8, addend: 0x0, symName: __ZNSt3__16__treeINS_12__value_typeIyPN3LOB5LimitEEENS_19__map_value_compareIyS5_NS_4lessIyEELb1EEENS_9allocatorIS5_EEE25__emplace_unique_key_argsIyJRKNS_21piecewise_construct_tENS_5tupleIJRKyEEENSH_IJEEEEEENS_4pairINS_15__tree_iteratorIS5_PNS_11__tree_nodeIS5_PvEElEEbEERKT_DpOT0_, symObjAddr: 0x6900, symBinAddr: 0x100009E70, symSize: 0x100 }
  - { offsetInCU: 0x180AE, offset: 0x180AE, size: 0x8, addend: 0x0, symName: __ZNSt3__16__treeINS_12__value_typeIyPN3LOB5LimitEEENS_19__map_value_compareIyS5_NS_4lessIyEELb1EEENS_9allocatorIS5_EEE16__construct_nodeIJRKNS_21piecewise_construct_tENS_5tupleIJRKyEEENSH_IJEEEEEENS_10unique_ptrINS_11__tree_nodeIS5_PvEENS_22__tree_node_destructorINSA_ISP_EEEEEEDpOT_, symObjAddr: 0x6A40, symBinAddr: 0x100009FB0, symSize: 0x110 }
  - { offsetInCU: 0x18137, offset: 0x18137, size: 0x8, addend: 0x0, symName: __ZNSt3__116allocator_traitsINS_9allocatorINS_11__tree_nodeINS_12__value_typeIyPN3LOB5LimitEEEPvEEEEE9constructB7v160006INS_4pairIKyS6_EEJRKNS_21piecewise_construct_tENS_5tupleIJRSE_EEENSJ_IJEEEEvvEEvRSA_PT_DpOT0_, symObjAddr: 0x6B50, symBinAddr: 0x10000A0C0, symSize: 0x40 }
  - { offsetInCU: 0x181B4, offset: 0x181B4, size: 0x8, addend: 0x0, symName: __ZNSt3__14pairIKyPN3LOB5LimitEEC1B7v160006IJRS1_EJEEENS_21piecewise_construct_tENS_5tupleIJDpT_EEENS9_IJDpT0_EEE, symObjAddr: 0x6BE0, symBinAddr: 0x10000A150, symSize: 0x40 }
  - { offsetInCU: 0x1821B, offset: 0x1821B, size: 0x8, addend: 0x0, symName: __ZNSt3__14pairIKyPN3LOB5LimitEEC1B7v160006IJRS1_EJEJLm0EEJEEENS_21piecewise_construct_tERNS_5tupleIJDpT_EEERNS9_IJDpT0_EEENS_15__tuple_indicesIJXspT1_EEEENSI_IJXspT2_EEEE, symObjAddr: 0x6C20, symBinAddr: 0x10000A190, symSize: 0x30 }
  - { offsetInCU: 0x182AB, offset: 0x182AB, size: 0x8, addend: 0x0, symName: __ZNSt3__14pairIKyPN3LOB5LimitEEC2B7v160006IJRS1_EJEJLm0EEJEEENS_21piecewise_construct_tERNS_5tupleIJDpT_EEERNS9_IJDpT0_EEENS_15__tuple_indicesIJXspT1_EEEENSI_IJXspT2_EEEE, symObjAddr: 0x6C50, symBinAddr: 0x10000A1C0, symSize: 0x40 }
  - { offsetInCU: 0x1833B, offset: 0x1833B, size: 0x8, addend: 0x0, symName: __ZNSt3__112__tuple_leafILm0ERKyLb0EE3getB7v160006Ev, symObjAddr: 0x6CB0, symBinAddr: 0x10000A220, symSize: 0x20 }
  - { offsetInCU: 0x18361, offset: 0x18361, size: 0x8, addend: 0x0, symName: __ZNSt3__15tupleIJRKyEEC1B7v160006INS_4_AndELi0EEES2_, symObjAddr: 0x6CD0, symBinAddr: 0x10000A240, symSize: 0x30 }
  - { offsetInCU: 0x183A9, offset: 0x183A9, size: 0x8, addend: 0x0, symName: __ZNSt3__15tupleIJRKyEEC2B7v160006INS_4_AndELi0EEES2_, symObjAddr: 0x6D00, symBinAddr: 0x10000A270, symSize: 0x30 }
  - { offsetInCU: 0x183F1, offset: 0x183F1, size: 0x8, addend: 0x0, symName: __ZNSt3__112__tuple_implINS_15__tuple_indicesIJLm0EEEEJRKyEEC1B7v160006IJLm0EEJS4_EJEJEJS4_EEENS1_IJXspT_EEEENS_13__tuple_typesIJDpT0_EEENS1_IJXspT1_EEEENS8_IJDpT2_EEEDpOT3_, symObjAddr: 0x6D30, symBinAddr: 0x10000A2A0, symSize: 0x30 }
  - { offsetInCU: 0x18486, offset: 0x18486, size: 0x8, addend: 0x0, symName: __ZNSt3__112__tuple_implINS_15__tuple_indicesIJLm0EEEEJRKyEEC2B7v160006IJLm0EEJS4_EJEJEJS4_EEENS1_IJXspT_EEEENS_13__tuple_typesIJDpT0_EEENS1_IJXspT1_EEEENS8_IJDpT2_EEEDpOT3_, symObjAddr: 0x6D60, symBinAddr: 0x10000A2D0, symSize: 0x30 }
  - { offsetInCU: 0x1851B, offset: 0x1851B, size: 0x8, addend: 0x0, symName: __ZNSt3__112__tuple_leafILm0ERKyLb0EEC2B7v160006IS2_vEEOT_, symObjAddr: 0x6D90, symBinAddr: 0x10000A300, symSize: 0x20 }
  - { offsetInCU: 0x1855E, offset: 0x1855E, size: 0x8, addend: 0x0, symName: __ZNSt3__14listIN3LOB5OrderENS_9allocatorIS2_EEE15__allocate_nodeB7v160006ERNS3_INS_11__list_nodeIS2_PvEEEE, symObjAddr: 0x6DB0, symBinAddr: 0x10000A320, symSize: 0x80 }
  - { offsetInCU: 0x185A2, offset: 0x185A2, size: 0x8, addend: 0x0, symName: __ZNSt3__116allocator_traitsINS_9allocatorINS_11__list_nodeIN3LOB5OrderEPvEEEEE9constructB7v160006IS4_JRS4_EvvEEvRS7_PT_DpOT0_, symObjAddr: 0x6E30, symBinAddr: 0x10000A3A0, symSize: 0x30 }
  - { offsetInCU: 0x185F7, offset: 0x185F7, size: 0x8, addend: 0x0, symName: __ZNKSt3__110unique_ptrINS_11__list_nodeIN3LOB5OrderEPvEENS_22__allocator_destructorINS_9allocatorIS5_EEEEEptB7v160006Ev, symObjAddr: 0x6E60, symBinAddr: 0x10000A3D0, symSize: 0x20 }
  - { offsetInCU: 0x1861D, offset: 0x1861D, size: 0x8, addend: 0x0, symName: __ZNSt3__111__list_nodeIN3LOB5OrderEPvE9__as_linkB7v160006Ev, symObjAddr: 0x6E80, symBinAddr: 0x10000A3F0, symSize: 0x20 }
  - { offsetInCU: 0x18643, offset: 0x18643, size: 0x8, addend: 0x0, symName: __ZNSt3__14listIN3LOB5OrderENS_9allocatorIS2_EEE20__link_nodes_at_backEPNS_16__list_node_baseIS2_PvEES9_, symObjAddr: 0x6EA0, symBinAddr: 0x10000A410, symSize: 0x60 }
  - { offsetInCU: 0x18689, offset: 0x18689, size: 0x8, addend: 0x0, symName: __ZNSt3__110unique_ptrINS_11__list_nodeIN3LOB5OrderEPvEENS_22__allocator_destructorINS_9allocatorIS5_EEEEE7releaseB7v160006Ev, symObjAddr: 0x6F00, symBinAddr: 0x10000A470, symSize: 0x40 }
  - { offsetInCU: 0x186BE, offset: 0x186BE, size: 0x8, addend: 0x0, symName: __ZNSt3__110unique_ptrINS_11__list_nodeIN3LOB5OrderEPvEENS_22__allocator_destructorINS_9allocatorIS5_EEEEED1B7v160006Ev, symObjAddr: 0x6F40, symBinAddr: 0x10000A4B0, symSize: 0x20 }
  - { offsetInCU: 0x186E8, offset: 0x186E8, size: 0x8, addend: 0x0, symName: __ZNSt3__116allocator_traitsINS_9allocatorINS_11__list_nodeIN3LOB5OrderEPvEEEEE8allocateB7v160006ERS7_m, symObjAddr: 0x6F60, symBinAddr: 0x10000A4D0, symSize: 0x30 }
  - { offsetInCU: 0x1871B, offset: 0x1871B, size: 0x8, addend: 0x0, symName: __ZNSt3__122__allocator_destructorINS_9allocatorINS_11__list_nodeIN3LOB5OrderEPvEEEEEC1B7v160006ERS7_m, symObjAddr: 0x6F90, symBinAddr: 0x10000A500, symSize: 0x30 }
  - { offsetInCU: 0x18766, offset: 0x18766, size: 0x8, addend: 0x0, symName: __ZNSt3__110unique_ptrINS_11__list_nodeIN3LOB5OrderEPvEENS_22__allocator_destructorINS_9allocatorIS5_EEEEEC1B7v160006ILb1EvEEPS5_NS_16__dependent_typeINS_27__unique_ptr_deleter_sfinaeIS9_EEXT_EE20__good_rval_ref_typeE, symObjAddr: 0x6FC0, symBinAddr: 0x10000A530, symSize: 0x30 }
  - { offsetInCU: 0x187B7, offset: 0x187B7, size: 0x8, addend: 0x0, symName: __ZNSt3__19allocatorINS_11__list_nodeIN3LOB5OrderEPvEEE8allocateB7v160006Em, symObjAddr: 0x6FF0, symBinAddr: 0x10000A560, symSize: 0x50 }
  - { offsetInCU: 0x187F5, offset: 0x187F5, size: 0x8, addend: 0x0, symName: __ZNSt3__116allocator_traitsINS_9allocatorINS_11__list_nodeIN3LOB5OrderEPvEEEEE8max_sizeB7v160006IS7_vvEEmRKS7_, symObjAddr: 0x7040, symBinAddr: 0x10000A5B0, symSize: 0x30 }
  - { offsetInCU: 0x18821, offset: 0x18821, size: 0x8, addend: 0x0, symName: __ZNSt3__122__allocator_destructorINS_9allocatorINS_11__list_nodeIN3LOB5OrderEPvEEEEEC2B7v160006ERS7_m, symObjAddr: 0x7070, symBinAddr: 0x10000A5E0, symSize: 0x30 }
  - { offsetInCU: 0x18867, offset: 0x18867, size: 0x8, addend: 0x0, symName: __ZNSt3__110unique_ptrINS_11__list_nodeIN3LOB5OrderEPvEENS_22__allocator_destructorINS_9allocatorIS5_EEEEEC2B7v160006ILb1EvEEPS5_NS_16__dependent_typeINS_27__unique_ptr_deleter_sfinaeIS9_EEXT_EE20__good_rval_ref_typeE, symObjAddr: 0x70A0, symBinAddr: 0x10000A610, symSize: 0x40 }
  - { offsetInCU: 0x188B8, offset: 0x188B8, size: 0x8, addend: 0x0, symName: __ZNSt3__117__compressed_pairIPNS_11__list_nodeIN3LOB5OrderEPvEENS_22__allocator_destructorINS_9allocatorIS5_EEEEEC1B7v160006IRS6_SA_EEOT_OT0_, symObjAddr: 0x70E0, symBinAddr: 0x10000A650, symSize: 0x30 }
  - { offsetInCU: 0x18910, offset: 0x18910, size: 0x8, addend: 0x0, symName: __ZNSt3__117__compressed_pairIPNS_11__list_nodeIN3LOB5OrderEPvEENS_22__allocator_destructorINS_9allocatorIS5_EEEEEC2B7v160006IRS6_SA_EEOT_OT0_, symObjAddr: 0x7110, symBinAddr: 0x10000A680, symSize: 0x40 }
  - { offsetInCU: 0x18968, offset: 0x18968, size: 0x8, addend: 0x0, symName: __ZNSt3__122__compressed_pair_elemIPNS_11__list_nodeIN3LOB5OrderEPvEELi0ELb0EEC2B7v160006IRS6_vEEOT_, symObjAddr: 0x7150, symBinAddr: 0x10000A6C0, symSize: 0x20 }
  - { offsetInCU: 0x189AA, offset: 0x189AA, size: 0x8, addend: 0x0, symName: __ZNSt3__122__compressed_pair_elemINS_22__allocator_destructorINS_9allocatorINS_11__list_nodeIN3LOB5OrderEPvEEEEEELi1ELb0EEC2B7v160006IS9_vEEOT_, symObjAddr: 0x7170, symBinAddr: 0x10000A6E0, symSize: 0x30 }
  - { offsetInCU: 0x189EC, offset: 0x189EC, size: 0x8, addend: 0x0, symName: __ZNKSt3__117__compressed_pairIPNS_11__list_nodeIN3LOB5OrderEPvEENS_22__allocator_destructorINS_9allocatorIS5_EEEEE5firstB7v160006Ev, symObjAddr: 0x71E0, symBinAddr: 0x10000A750, symSize: 0x20 }
  - { offsetInCU: 0x18A12, offset: 0x18A12, size: 0x8, addend: 0x0, symName: __ZNKSt3__122__compressed_pair_elemIPNS_11__list_nodeIN3LOB5OrderEPvEELi0ELb0EE5__getB7v160006Ev, symObjAddr: 0x7200, symBinAddr: 0x10000A770, symSize: 0x10 }
  - { offsetInCU: 0x18A38, offset: 0x18A38, size: 0x8, addend: 0x0, symName: __ZNSt3__117__compressed_pairIPNS_11__list_nodeIN3LOB5OrderEPvEENS_22__allocator_destructorINS_9allocatorIS5_EEEEE5firstB7v160006Ev, symObjAddr: 0x7210, symBinAddr: 0x10000A780, symSize: 0x20 }
  - { offsetInCU: 0x18A5E, offset: 0x18A5E, size: 0x8, addend: 0x0, symName: __ZNSt3__122__compressed_pair_elemIPNS_11__list_nodeIN3LOB5OrderEPvEELi0ELb0EE5__getB7v160006Ev, symObjAddr: 0x7230, symBinAddr: 0x10000A7A0, symSize: 0x10 }
  - { offsetInCU: 0x18A84, offset: 0x18A84, size: 0x8, addend: 0x0, symName: __ZNSt3__110unique_ptrINS_11__list_nodeIN3LOB5OrderEPvEENS_22__allocator_destructorINS_9allocatorIS5_EEEEED2B7v160006Ev, symObjAddr: 0x7240, symBinAddr: 0x10000A7B0, symSize: 0x20 }
  - { offsetInCU: 0x18AAE, offset: 0x18AAE, size: 0x8, addend: 0x0, symName: __ZNSt3__110unique_ptrINS_11__list_nodeIN3LOB5OrderEPvEENS_22__allocator_destructorINS_9allocatorIS5_EEEEE5resetB7v160006EPS5_, symObjAddr: 0x7260, symBinAddr: 0x10000A7D0, symSize: 0x70 }
  - { offsetInCU: 0x18AF2, offset: 0x18AF2, size: 0x8, addend: 0x0, symName: __ZNSt3__117__compressed_pairIPNS_11__list_nodeIN3LOB5OrderEPvEENS_22__allocator_destructorINS_9allocatorIS5_EEEEE6secondB7v160006Ev, symObjAddr: 0x72D0, symBinAddr: 0x10000A840, symSize: 0x20 }
  - { offsetInCU: 0x18B18, offset: 0x18B18, size: 0x8, addend: 0x0, symName: __ZNSt3__122__allocator_destructorINS_9allocatorINS_11__list_nodeIN3LOB5OrderEPvEEEEEclB7v160006EPS6_, symObjAddr: 0x72F0, symBinAddr: 0x10000A860, symSize: 0x30 }
  - { offsetInCU: 0x18B4C, offset: 0x18B4C, size: 0x8, addend: 0x0, symName: __ZNSt3__122__compressed_pair_elemINS_22__allocator_destructorINS_9allocatorINS_11__list_nodeIN3LOB5OrderEPvEEEEEELi1ELb0EE5__getB7v160006Ev, symObjAddr: 0x7320, symBinAddr: 0x10000A890, symSize: 0x10 }
  - { offsetInCU: 0x18B72, offset: 0x18B72, size: 0x8, addend: 0x0, symName: __ZNSt3__115__list_iteratorIN3LOB5OrderEPvEppB7v160006Ev, symObjAddr: 0x7410, symBinAddr: 0x10000A980, symSize: 0x20 }
  - { offsetInCU: 0x18B98, offset: 0x18B98, size: 0x8, addend: 0x0, symName: __ZNSt3__115__list_iteratorIN3LOB5OrderEPvEmmB7v160006Ev, symObjAddr: 0x7430, symBinAddr: 0x10000A9A0, symSize: 0x20 }
  - { offsetInCU: 0x18BBE, offset: 0x18BBE, size: 0x8, addend: 0x0, symName: __ZNSt3__110__list_impIN3LOB5OrderENS_9allocatorIS2_EEE3endB7v160006Ev, symObjAddr: 0x7450, symBinAddr: 0x10000A9C0, symSize: 0x40 }
  - { offsetInCU: 0x18BE4, offset: 0x18BE4, size: 0x8, addend: 0x0, symName: __ZNSt3__115__list_iteratorIN3LOB5OrderEPvEC1B7v160006EPNS_16__list_node_baseIS2_S3_EEPKv, symObjAddr: 0x7490, symBinAddr: 0x10000AA00, symSize: 0x30 }
  - { offsetInCU: 0x18C2C, offset: 0x18C2C, size: 0x8, addend: 0x0, symName: __ZNSt3__115__list_iteratorIN3LOB5OrderEPvEC2B7v160006EPNS_16__list_node_baseIS2_S3_EEPKv, symObjAddr: 0x74C0, symBinAddr: 0x10000AA30, symSize: 0x20 }
  - { offsetInCU: 0x18C74, offset: 0x18C74, size: 0x8, addend: 0x0, symName: __ZNSt3__112__hash_tableINS_17__hash_value_typeIiNS_15__list_iteratorIN3LOB5OrderEPvEEEENS_22__unordered_map_hasherIiS7_NS_4hashIiEENS_8equal_toIiEELb1EEENS_21__unordered_map_equalIiS7_SC_SA_Lb1EEENS_9allocatorIS7_EEE25__emplace_unique_key_argsIiJRKNS_21piecewise_construct_tENS_5tupleIJOiEEENSN_IJEEEEEENS_4pairINS_15__hash_iteratorIPNS_11__hash_nodeIS7_S5_EEEEbEERKT_DpOT0_, symObjAddr: 0x74E0, symBinAddr: 0x10000AA50, symSize: 0x600 }
  - { offsetInCU: 0x18D7D, offset: 0x18D7D, size: 0x8, addend: 0x0, symName: __ZNKSt3__115__hash_iteratorIPNS_11__hash_nodeINS_17__hash_value_typeIiNS_15__list_iteratorIN3LOB5OrderEPvEEEES6_EEEptB7v160006Ev, symObjAddr: 0x7B10, symBinAddr: 0x10000B080, symSize: 0x30 }
  - { offsetInCU: 0x18DA3, offset: 0x18DA3, size: 0x8, addend: 0x0, symName: __ZNSt3__117__hash_value_typeIiNS_15__list_iteratorIN3LOB5OrderEPvEEE11__get_valueB7v160006Ev, symObjAddr: 0x7B40, symBinAddr: 0x10000B0B0, symSize: 0x20 }
  - { offsetInCU: 0x18DC9, offset: 0x18DC9, size: 0x8, addend: 0x0, symName: __ZNSt3__112__hash_tableINS_17__hash_value_typeIiNS_15__list_iteratorIN3LOB5OrderEPvEEEENS_22__unordered_map_hasherIiS7_NS_4hashIiEENS_8equal_toIiEELb1EEENS_21__unordered_map_equalIiS7_SC_SA_Lb1EEENS_9allocatorIS7_EEE13hash_functionB7v160006Ev, symObjAddr: 0x7B60, symBinAddr: 0x10000B0D0, symSize: 0x20 }
  - { offsetInCU: 0x18DEF, offset: 0x18DEF, size: 0x8, addend: 0x0, symName: __ZNKSt3__122__unordered_map_hasherIiNS_17__hash_value_typeIiNS_15__list_iteratorIN3LOB5OrderEPvEEEENS_4hashIiEENS_8equal_toIiEELb1EEclB7v160006ERKi, symObjAddr: 0x7B80, symBinAddr: 0x10000B0F0, symSize: 0x30 }
  - { offsetInCU: 0x18E24, offset: 0x18E24, size: 0x8, addend: 0x0, symName: __ZNKSt3__112__hash_tableINS_17__hash_value_typeIiNS_15__list_iteratorIN3LOB5OrderEPvEEEENS_22__unordered_map_hasherIiS7_NS_4hashIiEENS_8equal_toIiEELb1EEENS_21__unordered_map_equalIiS7_SC_SA_Lb1EEENS_9allocatorIS7_EEE12bucket_countB7v160006Ev, symObjAddr: 0x7BB0, symBinAddr: 0x10000B120, symSize: 0x30 }
  - { offsetInCU: 0x18E4A, offset: 0x18E4A, size: 0x8, addend: 0x0, symName: __ZNKSt3__110unique_ptrIA_PNS_16__hash_node_baseIPNS_11__hash_nodeINS_17__hash_value_typeIiNS_15__list_iteratorIN3LOB5OrderEPvEEEES7_EEEENS_25__bucket_list_deallocatorINS_9allocatorISD_EEEEEixB7v160006Em, symObjAddr: 0x7BE0, symBinAddr: 0x10000B150, symSize: 0x30 }
  - { offsetInCU: 0x18E7F, offset: 0x18E7F, size: 0x8, addend: 0x0, symName: __ZNKSt3__116__hash_node_baseIPNS_11__hash_nodeINS_17__hash_value_typeIiNS_15__list_iteratorIN3LOB5OrderEPvEEEES6_EEE6__hashB7v160006Ev, symObjAddr: 0x7C10, symBinAddr: 0x10000B180, symSize: 0x20 }
  - { offsetInCU: 0x18EA5, offset: 0x18EA5, size: 0x8, addend: 0x0, symName: __ZNSt3__112__hash_tableINS_17__hash_value_typeIiNS_15__list_iteratorIN3LOB5OrderEPvEEEENS_22__unordered_map_hasherIiS7_NS_4hashIiEENS_8equal_toIiEELb1EEENS_21__unordered_map_equalIiS7_SC_SA_Lb1EEENS_9allocatorIS7_EEE6key_eqB7v160006Ev, symObjAddr: 0x7C30, symBinAddr: 0x10000B1A0, symSize: 0x20 }
  - { offsetInCU: 0x18ECB, offset: 0x18ECB, size: 0x8, addend: 0x0, symName: __ZNKSt3__121__unordered_map_equalIiNS_17__hash_value_typeIiNS_15__list_iteratorIN3LOB5OrderEPvEEEENS_8equal_toIiEENS_4hashIiEELb1EEclB7v160006ERKS7_RKi, symObjAddr: 0x7C50, symBinAddr: 0x10000B1C0, symSize: 0x40 }
  - { offsetInCU: 0x18F0F, offset: 0x18F0F, size: 0x8, addend: 0x0, symName: __ZNSt3__116__hash_node_baseIPNS_11__hash_nodeINS_17__hash_value_typeIiNS_15__list_iteratorIN3LOB5OrderEPvEEEES6_EEE8__upcastB7v160006Ev, symObjAddr: 0x7C90, symBinAddr: 0x10000B200, symSize: 0x20 }
  - { offsetInCU: 0x18F35, offset: 0x18F35, size: 0x8, addend: 0x0, symName: __ZNSt3__112__hash_tableINS_17__hash_value_typeIiNS_15__list_iteratorIN3LOB5OrderEPvEEEENS_22__unordered_map_hasherIiS7_NS_4hashIiEENS_8equal_toIiEELb1EEENS_21__unordered_map_equalIiS7_SC_SA_Lb1EEENS_9allocatorIS7_EEE21__construct_node_hashIRKNS_21piecewise_construct_tEJNS_5tupleIJOiEEENSN_IJEEEEEENS_10unique_ptrINS_11__hash_nodeIS7_S5_EENS_22__hash_node_destructorINSG_IST_EEEEEEmOT_DpOT0_, symObjAddr: 0x7CB0, symBinAddr: 0x10000B220, symSize: 0x150 }
  - { offsetInCU: 0x18FD1, offset: 0x18FD1, size: 0x8, addend: 0x0, symName: __ZNSt3__112__hash_tableINS_17__hash_value_typeIiNS_15__list_iteratorIN3LOB5OrderEPvEEEENS_22__unordered_map_hasherIiS7_NS_4hashIiEENS_8equal_toIiEELb1EEENS_21__unordered_map_equalIiS7_SC_SA_Lb1EEENS_9allocatorIS7_EEE4sizeB7v160006Ev, symObjAddr: 0x7E00, symBinAddr: 0x10000B370, symSize: 0x20 }
  - { offsetInCU: 0x18FF7, offset: 0x18FF7, size: 0x8, addend: 0x0, symName: __ZNSt3__112__hash_tableINS_17__hash_value_typeIiNS_15__list_iteratorIN3LOB5OrderEPvEEEENS_22__unordered_map_hasherIiS7_NS_4hashIiEENS_8equal_toIiEELb1EEENS_21__unordered_map_equalIiS7_SC_SA_Lb1EEENS_9allocatorIS7_EEE15max_load_factorB7v160006Ev, symObjAddr: 0x7E20, symBinAddr: 0x10000B390, symSize: 0x20 }
  - { offsetInCU: 0x1901D, offset: 0x1901D, size: 0x8, addend: 0x0, symName: __ZNSt3__112__hash_tableINS_17__hash_value_typeIiNS_15__list_iteratorIN3LOB5OrderEPvEEEENS_22__unordered_map_hasherIiS7_NS_4hashIiEENS_8equal_toIiEELb1EEENS_21__unordered_map_equalIiS7_SC_SA_Lb1EEENS_9allocatorIS7_EEE15__rehash_uniqueB7v160006Em, symObjAddr: 0x7E40, symBinAddr: 0x10000B3B0, symSize: 0x30 }
  - { offsetInCU: 0x19052, offset: 0x19052, size: 0x8, addend: 0x0, symName: __ZNSt3__117__compressed_pairINS_16__hash_node_baseIPNS_11__hash_nodeINS_17__hash_value_typeIiNS_15__list_iteratorIN3LOB5OrderEPvEEEES7_EEEENS_9allocatorISA_EEE5firstB7v160006Ev, symObjAddr: 0x7E70, symBinAddr: 0x10000B3E0, symSize: 0x20 }
  - { offsetInCU: 0x19078, offset: 0x19078, size: 0x8, addend: 0x0, symName: __ZNSt3__116__hash_node_baseIPNS_11__hash_nodeINS_17__hash_value_typeIiNS_15__list_iteratorIN3LOB5OrderEPvEEEES6_EEE5__ptrB7v160006Ev, symObjAddr: 0x7E90, symBinAddr: 0x10000B400, symSize: 0x20 }
  - { offsetInCU: 0x1909E, offset: 0x1909E, size: 0x8, addend: 0x0, symName: __ZNKSt3__110unique_ptrINS_11__hash_nodeINS_17__hash_value_typeIiNS_15__list_iteratorIN3LOB5OrderEPvEEEES6_EENS_22__hash_node_destructorINS_9allocatorIS9_EEEEEptB7v160006Ev, symObjAddr: 0x7EB0, symBinAddr: 0x10000B420, symSize: 0x20 }
  - { offsetInCU: 0x190C4, offset: 0x190C4, size: 0x8, addend: 0x0, symName: __ZNKSt3__110unique_ptrINS_11__hash_nodeINS_17__hash_value_typeIiNS_15__list_iteratorIN3LOB5OrderEPvEEEES6_EENS_22__hash_node_destructorINS_9allocatorIS9_EEEEE3getB7v160006Ev, symObjAddr: 0x7ED0, symBinAddr: 0x10000B440, symSize: 0x20 }
  - { offsetInCU: 0x190EA, offset: 0x190EA, size: 0x8, addend: 0x0, symName: __ZNSt3__110unique_ptrINS_11__hash_nodeINS_17__hash_value_typeIiNS_15__list_iteratorIN3LOB5OrderEPvEEEES6_EENS_22__hash_node_destructorINS_9allocatorIS9_EEEEE7releaseB7v160006Ev, symObjAddr: 0x7EF0, symBinAddr: 0x10000B460, symSize: 0x40 }
  - { offsetInCU: 0x1911F, offset: 0x1911F, size: 0x8, addend: 0x0, symName: __ZNSt3__110unique_ptrINS_11__hash_nodeINS_17__hash_value_typeIiNS_15__list_iteratorIN3LOB5OrderEPvEEEES6_EENS_22__hash_node_destructorINS_9allocatorIS9_EEEEED1B7v160006Ev, symObjAddr: 0x7F30, symBinAddr: 0x10000B4A0, symSize: 0x20 }
  - { offsetInCU: 0x19149, offset: 0x19149, size: 0x8, addend: 0x0, symName: __ZNSt3__115__hash_iteratorIPNS_11__hash_nodeINS_17__hash_value_typeIiNS_15__list_iteratorIN3LOB5OrderEPvEEEES6_EEEC1B7v160006EPNS_16__hash_node_baseISA_EEPKv, symObjAddr: 0x7F50, symBinAddr: 0x10000B4C0, symSize: 0x30 }
  - { offsetInCU: 0x19196, offset: 0x19196, size: 0x8, addend: 0x0, symName: __ZNSt3__14pairINS_15__hash_iteratorIPNS_11__hash_nodeINS_17__hash_value_typeIiNS_15__list_iteratorIN3LOB5OrderEPvEEEES7_EEEEbEC1B7v160006ISC_RbLS7_0EEEOT_OT0_, symObjAddr: 0x7F80, symBinAddr: 0x10000B4F0, symSize: 0x30 }
  - { offsetInCU: 0x191F4, offset: 0x191F4, size: 0x8, addend: 0x0, symName: __ZNSt3__117__compressed_pairImNS_22__unordered_map_hasherIiNS_17__hash_value_typeIiNS_15__list_iteratorIN3LOB5OrderEPvEEEENS_4hashIiEENS_8equal_toIiEELb1EEEE6secondB7v160006Ev, symObjAddr: 0x7FB0, symBinAddr: 0x10000B520, symSize: 0x20 }
  - { offsetInCU: 0x1921A, offset: 0x1921A, size: 0x8, addend: 0x0, symName: __ZNSt3__122__compressed_pair_elemINS_22__unordered_map_hasherIiNS_17__hash_value_typeIiNS_15__list_iteratorIN3LOB5OrderEPvEEEENS_4hashIiEENS_8equal_toIiEELb1EEELi1ELb1EE5__getB7v160006Ev, symObjAddr: 0x7FD0, symBinAddr: 0x10000B540, symSize: 0x10 }
  - { offsetInCU: 0x19240, offset: 0x19240, size: 0x8, addend: 0x0, symName: __ZNKSt3__14hashIiEclB7v160006Ei, symObjAddr: 0x7FE0, symBinAddr: 0x10000B550, symSize: 0x20 }
  - { offsetInCU: 0x19275, offset: 0x19275, size: 0x8, addend: 0x0, symName: __ZNKSt3__110unique_ptrIA_PNS_16__hash_node_baseIPNS_11__hash_nodeINS_17__hash_value_typeIiNS_15__list_iteratorIN3LOB5OrderEPvEEEES7_EEEENS_25__bucket_list_deallocatorINS_9allocatorISD_EEEEE11get_deleterB7v160006Ev, symObjAddr: 0x8000, symBinAddr: 0x10000B570, symSize: 0x20 }
  - { offsetInCU: 0x1929B, offset: 0x1929B, size: 0x8, addend: 0x0, symName: __ZNKSt3__125__bucket_list_deallocatorINS_9allocatorIPNS_16__hash_node_baseIPNS_11__hash_nodeINS_17__hash_value_typeIiNS_15__list_iteratorIN3LOB5OrderEPvEEEES8_EEEEEEE4sizeB7v160006Ev, symObjAddr: 0x8020, symBinAddr: 0x10000B590, symSize: 0x20 }
  - { offsetInCU: 0x192C1, offset: 0x192C1, size: 0x8, addend: 0x0, symName: __ZNKSt3__117__compressed_pairIPPNS_16__hash_node_baseIPNS_11__hash_nodeINS_17__hash_value_typeIiNS_15__list_iteratorIN3LOB5OrderEPvEEEES7_EEEENS_25__bucket_list_deallocatorINS_9allocatorISD_EEEEE6secondB7v160006Ev, symObjAddr: 0x8040, symBinAddr: 0x10000B5B0, symSize: 0x20 }
  - { offsetInCU: 0x192E7, offset: 0x192E7, size: 0x8, addend: 0x0, symName: __ZNKSt3__122__compressed_pair_elemINS_25__bucket_list_deallocatorINS_9allocatorIPNS_16__hash_node_baseIPNS_11__hash_nodeINS_17__hash_value_typeIiNS_15__list_iteratorIN3LOB5OrderEPvEEEES9_EEEEEEEELi1ELb0EE5__getB7v160006Ev, symObjAddr: 0x8060, symBinAddr: 0x10000B5D0, symSize: 0x10 }
  - { offsetInCU: 0x1930D, offset: 0x1930D, size: 0x8, addend: 0x0, symName: __ZNKSt3__117__compressed_pairImNS_9allocatorIPNS_16__hash_node_baseIPNS_11__hash_nodeINS_17__hash_value_typeIiNS_15__list_iteratorIN3LOB5OrderEPvEEEES8_EEEEEEE5firstB7v160006Ev, symObjAddr: 0x8070, symBinAddr: 0x10000B5E0, symSize: 0x20 }
  - { offsetInCU: 0x19333, offset: 0x19333, size: 0x8, addend: 0x0, symName: __ZNKSt3__117__compressed_pairIPPNS_16__hash_node_baseIPNS_11__hash_nodeINS_17__hash_value_typeIiNS_15__list_iteratorIN3LOB5OrderEPvEEEES7_EEEENS_25__bucket_list_deallocatorINS_9allocatorISD_EEEEE5firstB7v160006Ev, symObjAddr: 0x8090, symBinAddr: 0x10000B600, symSize: 0x20 }
  - { offsetInCU: 0x19359, offset: 0x19359, size: 0x8, addend: 0x0, symName: __ZNKSt3__122__compressed_pair_elemIPPNS_16__hash_node_baseIPNS_11__hash_nodeINS_17__hash_value_typeIiNS_15__list_iteratorIN3LOB5OrderEPvEEEES7_EEEELi0ELb0EE5__getB7v160006Ev, symObjAddr: 0x80B0, symBinAddr: 0x10000B620, symSize: 0x10 }
  - { offsetInCU: 0x1937F, offset: 0x1937F, size: 0x8, addend: 0x0, symName: __ZNSt3__117__compressed_pairIfNS_21__unordered_map_equalIiNS_17__hash_value_typeIiNS_15__list_iteratorIN3LOB5OrderEPvEEEENS_8equal_toIiEENS_4hashIiEELb1EEEE6secondB7v160006Ev, symObjAddr: 0x80C0, symBinAddr: 0x10000B630, symSize: 0x20 }
  - { offsetInCU: 0x193A5, offset: 0x193A5, size: 0x8, addend: 0x0, symName: __ZNSt3__122__compressed_pair_elemINS_21__unordered_map_equalIiNS_17__hash_value_typeIiNS_15__list_iteratorIN3LOB5OrderEPvEEEENS_8equal_toIiEENS_4hashIiEELb1EEELi1ELb1EE5__getB7v160006Ev, symObjAddr: 0x80E0, symBinAddr: 0x10000B650, symSize: 0x10 }
  - { offsetInCU: 0x193CB, offset: 0x193CB, size: 0x8, addend: 0x0, symName: __ZNKSt3__18equal_toIiEclB7v160006ERKiS3_, symObjAddr: 0x80F0, symBinAddr: 0x10000B660, symSize: 0x30 }
  - { offsetInCU: 0x1940F, offset: 0x1940F, size: 0x8, addend: 0x0, symName: __ZNKSt3__117__hash_value_typeIiNS_15__list_iteratorIN3LOB5OrderEPvEEE11__get_valueB7v160006Ev, symObjAddr: 0x8120, symBinAddr: 0x10000B690, symSize: 0x20 }
  - { offsetInCU: 0x19435, offset: 0x19435, size: 0x8, addend: 0x0, symName: __ZNSt3__114pointer_traitsIPNS_16__hash_node_baseIPNS_11__hash_nodeINS_17__hash_value_typeIiNS_15__list_iteratorIN3LOB5OrderEPvEEEES7_EEEEE10pointer_toB7v160006ERSC_, symObjAddr: 0x8170, symBinAddr: 0x10000B6E0, symSize: 0x10 }
  - { offsetInCU: 0x19458, offset: 0x19458, size: 0x8, addend: 0x0, symName: __ZNSt3__112__hash_tableINS_17__hash_value_typeIiNS_15__list_iteratorIN3LOB5OrderEPvEEEENS_22__unordered_map_hasherIiS7_NS_4hashIiEENS_8equal_toIiEELb1EEENS_21__unordered_map_equalIiS7_SC_SA_Lb1EEENS_9allocatorIS7_EEE12__node_allocB7v160006Ev, symObjAddr: 0x8180, symBinAddr: 0x10000B6F0, symSize: 0x20 }
  - { offsetInCU: 0x1947E, offset: 0x1947E, size: 0x8, addend: 0x0, symName: __ZNSt3__116allocator_traitsINS_9allocatorINS_11__hash_nodeINS_17__hash_value_typeIiNS_15__list_iteratorIN3LOB5OrderEPvEEEES7_EEEEE8allocateB7v160006ERSB_m, symObjAddr: 0x81A0, symBinAddr: 0x10000B710, symSize: 0x30 }
  - { offsetInCU: 0x194B1, offset: 0x194B1, size: 0x8, addend: 0x0, symName: __ZNSt3__122__hash_node_destructorINS_9allocatorINS_11__hash_nodeINS_17__hash_value_typeIiNS_15__list_iteratorIN3LOB5OrderEPvEEEES7_EEEEEC1B7v160006ERSB_b, symObjAddr: 0x81D0, symBinAddr: 0x10000B740, symSize: 0x40 }
  - { offsetInCU: 0x194FE, offset: 0x194FE, size: 0x8, addend: 0x0, symName: __ZNSt3__110unique_ptrINS_11__hash_nodeINS_17__hash_value_typeIiNS_15__list_iteratorIN3LOB5OrderEPvEEEES6_EENS_22__hash_node_destructorINS_9allocatorIS9_EEEEEC1B7v160006ILb1EvEEPS9_NS_16__dependent_typeINS_27__unique_ptr_deleter_sfinaeISD_EEXT_EE20__good_rval_ref_typeE, symObjAddr: 0x8210, symBinAddr: 0x10000B780, symSize: 0x30 }
  - { offsetInCU: 0x1954F, offset: 0x1954F, size: 0x8, addend: 0x0, symName: __ZNSt3__116allocator_traitsINS_9allocatorINS_11__hash_nodeINS_17__hash_value_typeIiNS_15__list_iteratorIN3LOB5OrderEPvEEEES7_EEEEE9constructB7v160006INS_4pairIKiS8_EEJRKNS_21piecewise_construct_tENS_5tupleIJOiEEENSK_IJEEEEvvEEvRSB_PT_DpOT0_, symObjAddr: 0x8240, symBinAddr: 0x10000B7B0, symSize: 0x40 }
  - { offsetInCU: 0x195CC, offset: 0x195CC, size: 0x8, addend: 0x0, symName: __ZNSt3__122__hash_key_value_typesINS_17__hash_value_typeIiNS_15__list_iteratorIN3LOB5OrderEPvEEEEE9__get_ptrB7v160006ERS7_, symObjAddr: 0x8280, symBinAddr: 0x10000B7F0, symSize: 0x20 }
  - { offsetInCU: 0x195EF, offset: 0x195EF, size: 0x8, addend: 0x0, symName: __ZNSt3__110unique_ptrINS_11__hash_nodeINS_17__hash_value_typeIiNS_15__list_iteratorIN3LOB5OrderEPvEEEES6_EENS_22__hash_node_destructorINS_9allocatorIS9_EEEEE11get_deleterB7v160006Ev, symObjAddr: 0x82A0, symBinAddr: 0x10000B810, symSize: 0x20 }
  - { offsetInCU: 0x19615, offset: 0x19615, size: 0x8, addend: 0x0, symName: __ZNSt3__117__compressed_pairINS_16__hash_node_baseIPNS_11__hash_nodeINS_17__hash_value_typeIiNS_15__list_iteratorIN3LOB5OrderEPvEEEES7_EEEENS_9allocatorISA_EEE6secondB7v160006Ev, symObjAddr: 0x82C0, symBinAddr: 0x10000B830, symSize: 0x20 }
  - { offsetInCU: 0x1963B, offset: 0x1963B, size: 0x8, addend: 0x0, symName: __ZNSt3__122__compressed_pair_elemINS_9allocatorINS_11__hash_nodeINS_17__hash_value_typeIiNS_15__list_iteratorIN3LOB5OrderEPvEEEES7_EEEELi1ELb1EE5__getB7v160006Ev, symObjAddr: 0x82E0, symBinAddr: 0x10000B850, symSize: 0x10 }
  - { offsetInCU: 0x19661, offset: 0x19661, size: 0x8, addend: 0x0, symName: __ZNSt3__19allocatorINS_11__hash_nodeINS_17__hash_value_typeIiNS_15__list_iteratorIN3LOB5OrderEPvEEEES6_EEE8allocateB7v160006Em, symObjAddr: 0x82F0, symBinAddr: 0x10000B860, symSize: 0x50 }
  - { offsetInCU: 0x1969F, offset: 0x1969F, size: 0x8, addend: 0x0, symName: __ZNSt3__116allocator_traitsINS_9allocatorINS_11__hash_nodeINS_17__hash_value_typeIiNS_15__list_iteratorIN3LOB5OrderEPvEEEES7_EEEEE8max_sizeB7v160006ISB_vvEEmRKSB_, symObjAddr: 0x8340, symBinAddr: 0x10000B8B0, symSize: 0x20 }
  - { offsetInCU: 0x196CB, offset: 0x196CB, size: 0x8, addend: 0x0, symName: __ZNSt3__122__hash_node_destructorINS_9allocatorINS_11__hash_nodeINS_17__hash_value_typeIiNS_15__list_iteratorIN3LOB5OrderEPvEEEES7_EEEEEC2B7v160006ERSB_b, symObjAddr: 0x8360, symBinAddr: 0x10000B8D0, symSize: 0x30 }
  - { offsetInCU: 0x19713, offset: 0x19713, size: 0x8, addend: 0x0, symName: __ZNSt3__110unique_ptrINS_11__hash_nodeINS_17__hash_value_typeIiNS_15__list_iteratorIN3LOB5OrderEPvEEEES6_EENS_22__hash_node_destructorINS_9allocatorIS9_EEEEEC2B7v160006ILb1EvEEPS9_NS_16__dependent_typeINS_27__unique_ptr_deleter_sfinaeISD_EEXT_EE20__good_rval_ref_typeE, symObjAddr: 0x8390, symBinAddr: 0x10000B900, symSize: 0x40 }
  - { offsetInCU: 0x19764, offset: 0x19764, size: 0x8, addend: 0x0, symName: __ZNSt3__117__compressed_pairIPNS_11__hash_nodeINS_17__hash_value_typeIiNS_15__list_iteratorIN3LOB5OrderEPvEEEES6_EENS_22__hash_node_destructorINS_9allocatorIS9_EEEEEC1B7v160006IRSA_SE_EEOT_OT0_, symObjAddr: 0x83D0, symBinAddr: 0x10000B940, symSize: 0x30 }
  - { offsetInCU: 0x197BC, offset: 0x197BC, size: 0x8, addend: 0x0, symName: __ZNSt3__117__compressed_pairIPNS_11__hash_nodeINS_17__hash_value_typeIiNS_15__list_iteratorIN3LOB5OrderEPvEEEES6_EENS_22__hash_node_destructorINS_9allocatorIS9_EEEEEC2B7v160006IRSA_SE_EEOT_OT0_, symObjAddr: 0x8400, symBinAddr: 0x10000B970, symSize: 0x40 }
  - { offsetInCU: 0x19814, offset: 0x19814, size: 0x8, addend: 0x0, symName: __ZNSt3__122__compressed_pair_elemIPNS_11__hash_nodeINS_17__hash_value_typeIiNS_15__list_iteratorIN3LOB5OrderEPvEEEES6_EELi0ELb0EEC2B7v160006IRSA_vEEOT_, symObjAddr: 0x8440, symBinAddr: 0x10000B9B0, symSize: 0x20 }
  - { offsetInCU: 0x19856, offset: 0x19856, size: 0x8, addend: 0x0, symName: __ZNSt3__122__compressed_pair_elemINS_22__hash_node_destructorINS_9allocatorINS_11__hash_nodeINS_17__hash_value_typeIiNS_15__list_iteratorIN3LOB5OrderEPvEEEES8_EEEEEELi1ELb0EEC2B7v160006ISD_vEEOT_, symObjAddr: 0x8460, symBinAddr: 0x10000B9D0, symSize: 0x30 }
  - { offsetInCU: 0x19898, offset: 0x19898, size: 0x8, addend: 0x0, symName: __ZNSt3__14pairIKiNS_15__list_iteratorIN3LOB5OrderEPvEEEC1B7v160006IJOiEJEEENS_21piecewise_construct_tENS_5tupleIJDpT_EEENSB_IJDpT0_EEE, symObjAddr: 0x84E0, symBinAddr: 0x10000BA50, symSize: 0x40 }
  - { offsetInCU: 0x198FF, offset: 0x198FF, size: 0x8, addend: 0x0, symName: __ZNSt3__14pairIKiNS_15__list_iteratorIN3LOB5OrderEPvEEEC1B7v160006IJOiEJEJLm0EEJEEENS_21piecewise_construct_tERNS_5tupleIJDpT_EEERNSB_IJDpT0_EEENS_15__tuple_indicesIJXspT1_EEEENSK_IJXspT2_EEEE, symObjAddr: 0x8520, symBinAddr: 0x10000BA90, symSize: 0x30 }
  - { offsetInCU: 0x1998F, offset: 0x1998F, size: 0x8, addend: 0x0, symName: __ZNSt3__14pairIKiNS_15__list_iteratorIN3LOB5OrderEPvEEEC2B7v160006IJOiEJEJLm0EEJEEENS_21piecewise_construct_tERNS_5tupleIJDpT_EEERNSB_IJDpT0_EEENS_15__tuple_indicesIJXspT1_EEEENSK_IJXspT2_EEEE, symObjAddr: 0x8550, symBinAddr: 0x10000BAC0, symSize: 0x40 }
  - { offsetInCU: 0x19A1F, offset: 0x19A1F, size: 0x8, addend: 0x0, symName: __ZNSt3__115__list_iteratorIN3LOB5OrderEPvEC1B7v160006Ev, symObjAddr: 0x85B0, symBinAddr: 0x10000BB20, symSize: 0x20 }
  - { offsetInCU: 0x19A49, offset: 0x19A49, size: 0x8, addend: 0x0, symName: __ZNSt3__112__tuple_leafILm0EOiLb0EE3getB7v160006Ev, symObjAddr: 0x85D0, symBinAddr: 0x10000BB40, symSize: 0x20 }
  - { offsetInCU: 0x19A6F, offset: 0x19A6F, size: 0x8, addend: 0x0, symName: __ZNSt3__115__list_iteratorIN3LOB5OrderEPvEC2B7v160006Ev, symObjAddr: 0x85F0, symBinAddr: 0x10000BB60, symSize: 0x30 }
  - { offsetInCU: 0x19A99, offset: 0x19A99, size: 0x8, addend: 0x0, symName: __ZNSt3__117__compressed_pairIPNS_11__hash_nodeINS_17__hash_value_typeIiNS_15__list_iteratorIN3LOB5OrderEPvEEEES6_EENS_22__hash_node_destructorINS_9allocatorIS9_EEEEE6secondB7v160006Ev, symObjAddr: 0x8630, symBinAddr: 0x10000BBA0, symSize: 0x20 }
  - { offsetInCU: 0x19ABF, offset: 0x19ABF, size: 0x8, addend: 0x0, symName: __ZNSt3__122__compressed_pair_elemINS_22__hash_node_destructorINS_9allocatorINS_11__hash_nodeINS_17__hash_value_typeIiNS_15__list_iteratorIN3LOB5OrderEPvEEEES8_EEEEEELi1ELb0EE5__getB7v160006Ev, symObjAddr: 0x8650, symBinAddr: 0x10000BBC0, symSize: 0x10 }
  - { offsetInCU: 0x19AE5, offset: 0x19AE5, size: 0x8, addend: 0x0, symName: __ZNSt3__117__compressed_pairImNS_22__unordered_map_hasherIiNS_17__hash_value_typeIiNS_15__list_iteratorIN3LOB5OrderEPvEEEENS_4hashIiEENS_8equal_toIiEELb1EEEE5firstB7v160006Ev, symObjAddr: 0x8660, symBinAddr: 0x10000BBD0, symSize: 0x20 }
  - { offsetInCU: 0x19B0B, offset: 0x19B0B, size: 0x8, addend: 0x0, symName: __ZNSt3__117__compressed_pairIfNS_21__unordered_map_equalIiNS_17__hash_value_typeIiNS_15__list_iteratorIN3LOB5OrderEPvEEEENS_8equal_toIiEENS_4hashIiEELb1EEEE5firstB7v160006Ev, symObjAddr: 0x8680, symBinAddr: 0x10000BBF0, symSize: 0x20 }
  - { offsetInCU: 0x19B31, offset: 0x19B31, size: 0x8, addend: 0x0, symName: __ZNSt3__112__hash_tableINS_17__hash_value_typeIiNS_15__list_iteratorIN3LOB5OrderEPvEEEENS_22__unordered_map_hasherIiS7_NS_4hashIiEENS_8equal_toIiEELb1EEENS_21__unordered_map_equalIiS7_SC_SA_Lb1EEENS_9allocatorIS7_EEE8__rehashILb1EEEvm, symObjAddr: 0x86A0, symBinAddr: 0x10000BC10, symSize: 0x230 }
  - { offsetInCU: 0x19B81, offset: 0x19B81, size: 0x8, addend: 0x0, symName: __ZNSt3__112__hash_tableINS_17__hash_value_typeIiNS_15__list_iteratorIN3LOB5OrderEPvEEEENS_22__unordered_map_hasherIiS7_NS_4hashIiEENS_8equal_toIiEELb1EEENS_21__unordered_map_equalIiS7_SC_SA_Lb1EEENS_9allocatorIS7_EEE11__do_rehashILb1EEEvm, symObjAddr: 0x88D0, symBinAddr: 0x10000BE40, symSize: 0x260 }
  - { offsetInCU: 0x19C64, offset: 0x19C64, size: 0x8, addend: 0x0, symName: __ZNSt3__110unique_ptrIA_PNS_16__hash_node_baseIPNS_11__hash_nodeINS_17__hash_value_typeIiNS_15__list_iteratorIN3LOB5OrderEPvEEEES7_EEEENS_25__bucket_list_deallocatorINS_9allocatorISD_EEEEE11get_deleterB7v160006Ev, symObjAddr: 0x8B40, symBinAddr: 0x10000C0B0, symSize: 0x20 }
  - { offsetInCU: 0x19C8A, offset: 0x19C8A, size: 0x8, addend: 0x0, symName: __ZNSt3__125__bucket_list_deallocatorINS_9allocatorIPNS_16__hash_node_baseIPNS_11__hash_nodeINS_17__hash_value_typeIiNS_15__list_iteratorIN3LOB5OrderEPvEEEES8_EEEEEEE7__allocB7v160006Ev, symObjAddr: 0x8B60, symBinAddr: 0x10000C0D0, symSize: 0x20 }
  - { offsetInCU: 0x19CB0, offset: 0x19CB0, size: 0x8, addend: 0x0, symName: __ZNSt3__110unique_ptrIA_PNS_16__hash_node_baseIPNS_11__hash_nodeINS_17__hash_value_typeIiNS_15__list_iteratorIN3LOB5OrderEPvEEEES7_EEEENS_25__bucket_list_deallocatorINS_9allocatorISD_EEEEE5resetB7v160006IPSD_EENS_9enable_ifIXsr28_CheckArrayPointerConversionIT_EE5valueEvE4typeESN_, symObjAddr: 0x8B80, symBinAddr: 0x10000C0F0, symSize: 0x70 }
  - { offsetInCU: 0x19CFD, offset: 0x19CFD, size: 0x8, addend: 0x0, symName: __ZNSt3__116allocator_traitsINS_9allocatorIPNS_16__hash_node_baseIPNS_11__hash_nodeINS_17__hash_value_typeIiNS_15__list_iteratorIN3LOB5OrderEPvEEEES8_EEEEEEE8allocateB7v160006ERSF_m, symObjAddr: 0x8BF0, symBinAddr: 0x10000C160, symSize: 0x30 }
  - { offsetInCU: 0x19D30, offset: 0x19D30, size: 0x8, addend: 0x0, symName: __ZNSt3__125__bucket_list_deallocatorINS_9allocatorIPNS_16__hash_node_baseIPNS_11__hash_nodeINS_17__hash_value_typeIiNS_15__list_iteratorIN3LOB5OrderEPvEEEES8_EEEEEEE4sizeB7v160006Ev, symObjAddr: 0x8C20, symBinAddr: 0x10000C190, symSize: 0x20 }
  - { offsetInCU: 0x19D56, offset: 0x19D56, size: 0x8, addend: 0x0, symName: __ZNSt3__117__compressed_pairIPPNS_16__hash_node_baseIPNS_11__hash_nodeINS_17__hash_value_typeIiNS_15__list_iteratorIN3LOB5OrderEPvEEEES7_EEEENS_25__bucket_list_deallocatorINS_9allocatorISD_EEEEE6secondB7v160006Ev, symObjAddr: 0x8C40, symBinAddr: 0x10000C1B0, symSize: 0x20 }
  - { offsetInCU: 0x19D7C, offset: 0x19D7C, size: 0x8, addend: 0x0, symName: __ZNSt3__122__compressed_pair_elemINS_25__bucket_list_deallocatorINS_9allocatorIPNS_16__hash_node_baseIPNS_11__hash_nodeINS_17__hash_value_typeIiNS_15__list_iteratorIN3LOB5OrderEPvEEEES9_EEEEEEEELi1ELb0EE5__getB7v160006Ev, symObjAddr: 0x8C60, symBinAddr: 0x10000C1D0, symSize: 0x10 }
  - { offsetInCU: 0x19DA2, offset: 0x19DA2, size: 0x8, addend: 0x0, symName: __ZNSt3__117__compressed_pairImNS_9allocatorIPNS_16__hash_node_baseIPNS_11__hash_nodeINS_17__hash_value_typeIiNS_15__list_iteratorIN3LOB5OrderEPvEEEES8_EEEEEEE6secondB7v160006Ev, symObjAddr: 0x8C70, symBinAddr: 0x10000C1E0, symSize: 0x20 }
  - { offsetInCU: 0x19DC8, offset: 0x19DC8, size: 0x8, addend: 0x0, symName: __ZNSt3__122__compressed_pair_elemINS_9allocatorIPNS_16__hash_node_baseIPNS_11__hash_nodeINS_17__hash_value_typeIiNS_15__list_iteratorIN3LOB5OrderEPvEEEES8_EEEEEELi1ELb1EE5__getB7v160006Ev, symObjAddr: 0x8C90, symBinAddr: 0x10000C200, symSize: 0x10 }
  - { offsetInCU: 0x19DEE, offset: 0x19DEE, size: 0x8, addend: 0x0, symName: __ZNSt3__117__compressed_pairIPPNS_16__hash_node_baseIPNS_11__hash_nodeINS_17__hash_value_typeIiNS_15__list_iteratorIN3LOB5OrderEPvEEEES7_EEEENS_25__bucket_list_deallocatorINS_9allocatorISD_EEEEE5firstB7v160006Ev, symObjAddr: 0x8CA0, symBinAddr: 0x10000C210, symSize: 0x20 }
  - { offsetInCU: 0x19E14, offset: 0x19E14, size: 0x8, addend: 0x0, symName: __ZNSt3__125__bucket_list_deallocatorINS_9allocatorIPNS_16__hash_node_baseIPNS_11__hash_nodeINS_17__hash_value_typeIiNS_15__list_iteratorIN3LOB5OrderEPvEEEES8_EEEEEEEclB7v160006EPSE_, symObjAddr: 0x8CC0, symBinAddr: 0x10000C230, symSize: 0x50 }
  - { offsetInCU: 0x19E49, offset: 0x19E49, size: 0x8, addend: 0x0, symName: __ZNSt3__122__compressed_pair_elemIPPNS_16__hash_node_baseIPNS_11__hash_nodeINS_17__hash_value_typeIiNS_15__list_iteratorIN3LOB5OrderEPvEEEES7_EEEELi0ELb0EE5__getB7v160006Ev, symObjAddr: 0x8D10, symBinAddr: 0x10000C280, symSize: 0x10 }
  - { offsetInCU: 0x19E6F, offset: 0x19E6F, size: 0x8, addend: 0x0, symName: __ZNSt3__116allocator_traitsINS_9allocatorIPNS_16__hash_node_baseIPNS_11__hash_nodeINS_17__hash_value_typeIiNS_15__list_iteratorIN3LOB5OrderEPvEEEES8_EEEEEEE10deallocateB7v160006ERSF_PSE_m, symObjAddr: 0x8D20, symBinAddr: 0x10000C290, symSize: 0x30 }
  - { offsetInCU: 0x19EB1, offset: 0x19EB1, size: 0x8, addend: 0x0, symName: __ZNSt3__19allocatorIPNS_16__hash_node_baseIPNS_11__hash_nodeINS_17__hash_value_typeIiNS_15__list_iteratorIN3LOB5OrderEPvEEEES7_EEEEE10deallocateB7v160006EPSD_m, symObjAddr: 0x8D50, symBinAddr: 0x10000C2C0, symSize: 0x40 }
  - { offsetInCU: 0x19EF3, offset: 0x19EF3, size: 0x8, addend: 0x0, symName: __ZNSt3__19allocatorIPNS_16__hash_node_baseIPNS_11__hash_nodeINS_17__hash_value_typeIiNS_15__list_iteratorIN3LOB5OrderEPvEEEES7_EEEEE8allocateB7v160006Em, symObjAddr: 0x8D90, symBinAddr: 0x10000C300, symSize: 0x50 }
  - { offsetInCU: 0x19F31, offset: 0x19F31, size: 0x8, addend: 0x0, symName: __ZNSt3__116allocator_traitsINS_9allocatorIPNS_16__hash_node_baseIPNS_11__hash_nodeINS_17__hash_value_typeIiNS_15__list_iteratorIN3LOB5OrderEPvEEEES8_EEEEEEE8max_sizeB7v160006ISF_vvEEmRKSF_, symObjAddr: 0x8DE0, symBinAddr: 0x10000C350, symSize: 0x20 }
  - { offsetInCU: 0x19F5D, offset: 0x19F5D, size: 0x8, addend: 0x0, symName: __ZNSt3__117__compressed_pairImNS_9allocatorIPNS_16__hash_node_baseIPNS_11__hash_nodeINS_17__hash_value_typeIiNS_15__list_iteratorIN3LOB5OrderEPvEEEES8_EEEEEEE5firstB7v160006Ev, symObjAddr: 0x8E00, symBinAddr: 0x10000C370, symSize: 0x20 }
  - { offsetInCU: 0x19F83, offset: 0x19F83, size: 0x8, addend: 0x0, symName: __ZNSt3__122__compressed_pair_elemINS_16__hash_node_baseIPNS_11__hash_nodeINS_17__hash_value_typeIiNS_15__list_iteratorIN3LOB5OrderEPvEEEES7_EEEELi0ELb0EE5__getB7v160006Ev, symObjAddr: 0x8E20, symBinAddr: 0x10000C390, symSize: 0x10 }
  - { offsetInCU: 0x19FA9, offset: 0x19FA9, size: 0x8, addend: 0x0, symName: __ZNKSt3__117__compressed_pairIPNS_11__hash_nodeINS_17__hash_value_typeIiNS_15__list_iteratorIN3LOB5OrderEPvEEEES6_EENS_22__hash_node_destructorINS_9allocatorIS9_EEEEE5firstB7v160006Ev, symObjAddr: 0x8E30, symBinAddr: 0x10000C3A0, symSize: 0x20 }
  - { offsetInCU: 0x19FCF, offset: 0x19FCF, size: 0x8, addend: 0x0, symName: __ZNKSt3__122__compressed_pair_elemIPNS_11__hash_nodeINS_17__hash_value_typeIiNS_15__list_iteratorIN3LOB5OrderEPvEEEES6_EELi0ELb0EE5__getB7v160006Ev, symObjAddr: 0x8E50, symBinAddr: 0x10000C3C0, symSize: 0x10 }
  - { offsetInCU: 0x19FF5, offset: 0x19FF5, size: 0x8, addend: 0x0, symName: __ZNSt3__117__compressed_pairIPNS_11__hash_nodeINS_17__hash_value_typeIiNS_15__list_iteratorIN3LOB5OrderEPvEEEES6_EENS_22__hash_node_destructorINS_9allocatorIS9_EEEEE5firstB7v160006Ev, symObjAddr: 0x8E60, symBinAddr: 0x10000C3D0, symSize: 0x20 }
  - { offsetInCU: 0x1A01B, offset: 0x1A01B, size: 0x8, addend: 0x0, symName: __ZNSt3__122__compressed_pair_elemIPNS_11__hash_nodeINS_17__hash_value_typeIiNS_15__list_iteratorIN3LOB5OrderEPvEEEES6_EELi0ELb0EE5__getB7v160006Ev, symObjAddr: 0x8E80, symBinAddr: 0x10000C3F0, symSize: 0x10 }
  - { offsetInCU: 0x1A041, offset: 0x1A041, size: 0x8, addend: 0x0, symName: __ZNSt3__110unique_ptrINS_11__hash_nodeINS_17__hash_value_typeIiNS_15__list_iteratorIN3LOB5OrderEPvEEEES6_EENS_22__hash_node_destructorINS_9allocatorIS9_EEEEED2B7v160006Ev, symObjAddr: 0x8E90, symBinAddr: 0x10000C400, symSize: 0x20 }
  - { offsetInCU: 0x1A06B, offset: 0x1A06B, size: 0x8, addend: 0x0, symName: __ZNSt3__110unique_ptrINS_11__hash_nodeINS_17__hash_value_typeIiNS_15__list_iteratorIN3LOB5OrderEPvEEEES6_EENS_22__hash_node_destructorINS_9allocatorIS9_EEEEE5resetB7v160006EPS9_, symObjAddr: 0x8EB0, symBinAddr: 0x10000C420, symSize: 0x70 }
  - { offsetInCU: 0x1A0AF, offset: 0x1A0AF, size: 0x8, addend: 0x0, symName: __ZNSt3__122__hash_node_destructorINS_9allocatorINS_11__hash_nodeINS_17__hash_value_typeIiNS_15__list_iteratorIN3LOB5OrderEPvEEEES7_EEEEEclB7v160006EPSA_, symObjAddr: 0x8F20, symBinAddr: 0x10000C490, symSize: 0x90 }
  - { offsetInCU: 0x1A0E4, offset: 0x1A0E4, size: 0x8, addend: 0x0, symName: __ZNSt3__116allocator_traitsINS_9allocatorINS_11__hash_nodeINS_17__hash_value_typeIiNS_15__list_iteratorIN3LOB5OrderEPvEEEES7_EEEEE7destroyB7v160006INS_4pairIKiS8_EEvvEEvRSB_PT_, symObjAddr: 0x8FB0, symBinAddr: 0x10000C520, symSize: 0x20 }
  - { offsetInCU: 0x1A11F, offset: 0x1A11F, size: 0x8, addend: 0x0, symName: __ZNSt3__116allocator_traitsINS_9allocatorINS_11__hash_nodeINS_17__hash_value_typeIiNS_15__list_iteratorIN3LOB5OrderEPvEEEES7_EEEEE10deallocateB7v160006ERSB_PSA_m, symObjAddr: 0x8FD0, symBinAddr: 0x10000C540, symSize: 0x30 }
  - { offsetInCU: 0x1A161, offset: 0x1A161, size: 0x8, addend: 0x0, symName: __ZNSt3__19allocatorINS_11__hash_nodeINS_17__hash_value_typeIiNS_15__list_iteratorIN3LOB5OrderEPvEEEES6_EEE10deallocateB7v160006EPS9_m, symObjAddr: 0x9030, symBinAddr: 0x10000C5A0, symSize: 0x40 }
  - { offsetInCU: 0x1A1A3, offset: 0x1A1A3, size: 0x8, addend: 0x0, symName: __ZNSt3__115__hash_iteratorIPNS_11__hash_nodeINS_17__hash_value_typeIiNS_15__list_iteratorIN3LOB5OrderEPvEEEES6_EEEC2B7v160006EPNS_16__hash_node_baseISA_EEPKv, symObjAddr: 0x9070, symBinAddr: 0x10000C5E0, symSize: 0x20 }
  - { offsetInCU: 0x1A1EB, offset: 0x1A1EB, size: 0x8, addend: 0x0, symName: __ZNSt3__14pairINS_15__hash_iteratorIPNS_11__hash_nodeINS_17__hash_value_typeIiNS_15__list_iteratorIN3LOB5OrderEPvEEEES7_EEEEbEC2B7v160006ISC_RbLS7_0EEEOT_OT0_, symObjAddr: 0x9090, symBinAddr: 0x10000C600, symSize: 0x30 }
  - { offsetInCU: 0x1A249, offset: 0x1A249, size: 0x8, addend: 0x0, symName: __ZNSt3__15tupleIJOiEEC1B7v160006IJiELi0EEEDpOT_, symObjAddr: 0x90C0, symBinAddr: 0x10000C630, symSize: 0x30 }
  - { offsetInCU: 0x1A293, offset: 0x1A293, size: 0x8, addend: 0x0, symName: __ZNSt3__15tupleIJOiEEC2B7v160006IJiELi0EEEDpOT_, symObjAddr: 0x90F0, symBinAddr: 0x10000C660, symSize: 0x30 }
  - { offsetInCU: 0x1A2DD, offset: 0x1A2DD, size: 0x8, addend: 0x0, symName: __ZNSt3__112__tuple_implINS_15__tuple_indicesIJLm0EEEEJOiEEC1B7v160006IJLm0EEJS3_EJEJEJiEEENS1_IJXspT_EEEENS_13__tuple_typesIJDpT0_EEENS1_IJXspT1_EEEENS7_IJDpT2_EEEDpOT3_, symObjAddr: 0x9120, symBinAddr: 0x10000C690, symSize: 0x30 }
  - { offsetInCU: 0x1A372, offset: 0x1A372, size: 0x8, addend: 0x0, symName: __ZNSt3__112__tuple_implINS_15__tuple_indicesIJLm0EEEEJOiEEC2B7v160006IJLm0EEJS3_EJEJEJiEEENS1_IJXspT_EEEENS_13__tuple_typesIJDpT0_EEENS1_IJXspT1_EEEENS7_IJDpT2_EEEDpOT3_, symObjAddr: 0x9150, symBinAddr: 0x10000C6C0, symSize: 0x30 }
  - { offsetInCU: 0x1A407, offset: 0x1A407, size: 0x8, addend: 0x0, symName: __ZNSt3__112__tuple_leafILm0EOiLb0EEC2B7v160006IivEEOT_, symObjAddr: 0x9180, symBinAddr: 0x10000C6F0, symSize: 0x20 }
  - { offsetInCU: 0x1A44A, offset: 0x1A44A, size: 0x8, addend: 0x0, symName: __ZNSt3__114pointer_traitsIPNS_17__hash_value_typeIiNS_15__list_iteratorIN3LOB5OrderEPvEEEEE10pointer_toB7v160006ERS7_, symObjAddr: 0x91A0, symBinAddr: 0x10000C710, symSize: 0x10 }
  - { offsetInCU: 0x1A477, offset: 0x1A477, size: 0x8, addend: 0x0, symName: '__ZZN3LOB14LimitOrderBook9limitSellEyyyENK3$_1clEy', symObjAddr: 0x9220, symBinAddr: 0x10000C790, symSize: 0x30 }
  - { offsetInCU: 0x1A4B9, offset: 0x1A4B9, size: 0x8, addend: 0x0, symName: '__ZZN3LOB14LimitOrderBook9marketBuyEyyENK3$_2clEy', symObjAddr: 0x92B0, symBinAddr: 0x10000C820, symSize: 0x30 }
  - { offsetInCU: 0x1A4FB, offset: 0x1A4FB, size: 0x8, addend: 0x0, symName: '__ZZN3LOB14LimitOrderBook10marketSellEyyENK3$_3clEy', symObjAddr: 0x92E0, symBinAddr: 0x10000C850, symSize: 0x30 }
  - { offsetInCU: 0x1A533, offset: 0x1A533, size: 0x8, addend: 0x0, symName: __ZNKSt3__14listIN3LOB5OrderENS_9allocatorIS2_EEE4sizeB7v160006Ev, symObjAddr: 0x9310, symBinAddr: 0x10000C880, symSize: 0x20 }
  - { offsetInCU: 0x1A559, offset: 0x1A559, size: 0x8, addend: 0x0, symName: __ZNSt3__13mapIyPN3LOB5LimitENS_4lessIyEENS_9allocatorINS_4pairIKyS3_EEEEE5eraseB7v160006ERS8_, symObjAddr: 0x93A0, symBinAddr: 0x10000C910, symSize: 0x30 }
  - { offsetInCU: 0x1A58E, offset: 0x1A58E, size: 0x8, addend: 0x0, symName: __ZN3LOB5LimitD1Ev, symObjAddr: 0x93D0, symBinAddr: 0x10000C940, symSize: 0x20 }
  - { offsetInCU: 0x1A5BA, offset: 0x1A5BA, size: 0x8, addend: 0x0, symName: __ZNSt3__113unordered_mapIiNS_15__list_iteratorIN3LOB5OrderEPvEENS_4hashIiEENS_8equal_toIiEENS_9allocatorINS_4pairIKiS5_EEEEE5eraseB7v160006ERSC_, symObjAddr: 0x93F0, symBinAddr: 0x10000C960, symSize: 0x30 }
  - { offsetInCU: 0x1A5EF, offset: 0x1A5EF, size: 0x8, addend: 0x0, symName: __ZNSt3__14listIN3LOB5OrderENS_9allocatorIS2_EEE5eraseENS_21__list_const_iteratorIS2_PvEE, symObjAddr: 0x9420, symBinAddr: 0x10000C990, symSize: 0xA0 }
  - { offsetInCU: 0x1A662, offset: 0x1A662, size: 0x8, addend: 0x0, symName: __ZNSt3__121__list_const_iteratorIN3LOB5OrderEPvEC1B7v160006ERKNS_15__list_iteratorIS2_S3_EE, symObjAddr: 0x94C0, symBinAddr: 0x10000CA30, symSize: 0x30 }
  - { offsetInCU: 0x1A69B, offset: 0x1A69B, size: 0x8, addend: 0x0, symName: __ZNKSt3__13mapIyPN3LOB5LimitENS_4lessIyEENS_9allocatorINS_4pairIKyS3_EEEEE5emptyB7v160006Ev, symObjAddr: 0x94F0, symBinAddr: 0x10000CA60, symSize: 0x30 }
  - { offsetInCU: 0x1A6C1, offset: 0x1A6C1, size: 0x8, addend: 0x0, symName: __ZNSt3__13mapIyPN3LOB5LimitENS_4lessIyEENS_9allocatorINS_4pairIKyS3_EEEEE6rbeginB7v160006Ev, symObjAddr: 0x9520, symBinAddr: 0x10000CA90, symSize: 0x50 }
  - { offsetInCU: 0x1A6E7, offset: 0x1A6E7, size: 0x8, addend: 0x0, symName: __ZNKSt3__116reverse_iteratorINS_14__map_iteratorINS_15__tree_iteratorINS_12__value_typeIyPN3LOB5LimitEEEPNS_11__tree_nodeIS7_PvEElEEEEEptB7v160006Ev, symObjAddr: 0x9570, symBinAddr: 0x10000CAE0, symSize: 0x40 }
  - { offsetInCU: 0x1A70D, offset: 0x1A70D, size: 0x8, addend: 0x0, symName: __ZNKSt3__16__treeINS_12__value_typeIyPN3LOB5LimitEEENS_19__map_value_compareIyS5_NS_4lessIyEELb1EEENS_9allocatorIS5_EEE4sizeB7v160006Ev, symObjAddr: 0x95B0, symBinAddr: 0x10000CB20, symSize: 0x20 }
  - { offsetInCU: 0x1A733, offset: 0x1A733, size: 0x8, addend: 0x0, symName: __ZNKSt3__117__compressed_pairImNS_19__map_value_compareIyNS_12__value_typeIyPN3LOB5LimitEEENS_4lessIyEELb1EEEE5firstB7v160006Ev, symObjAddr: 0x95D0, symBinAddr: 0x10000CB40, symSize: 0x20 }
  - { offsetInCU: 0x1A759, offset: 0x1A759, size: 0x8, addend: 0x0, symName: __ZNSt3__116reverse_iteratorINS_14__map_iteratorINS_15__tree_iteratorINS_12__value_typeIyPN3LOB5LimitEEEPNS_11__tree_nodeIS7_PvEElEEEEEC1B7v160006ESD_, symObjAddr: 0x95F0, symBinAddr: 0x10000CB60, symSize: 0x30 }
  - { offsetInCU: 0x1A791, offset: 0x1A791, size: 0x8, addend: 0x0, symName: __ZNSt3__116reverse_iteratorINS_14__map_iteratorINS_15__tree_iteratorINS_12__value_typeIyPN3LOB5LimitEEEPNS_11__tree_nodeIS7_PvEElEEEEEC2B7v160006ESD_, symObjAddr: 0x9620, symBinAddr: 0x10000CB90, symSize: 0x30 }
  - { offsetInCU: 0x1A7C9, offset: 0x1A7C9, size: 0x8, addend: 0x0, symName: __ZNSt3__114__map_iteratorINS_15__tree_iteratorINS_12__value_typeIyPN3LOB5LimitEEEPNS_11__tree_nodeIS6_PvEElEEEmmB7v160006Ev, symObjAddr: 0x9770, symBinAddr: 0x10000CCE0, symSize: 0x30 }
  - { offsetInCU: 0x1A7EF, offset: 0x1A7EF, size: 0x8, addend: 0x0, symName: __ZNSt3__115__tree_iteratorINS_12__value_typeIyPN3LOB5LimitEEEPNS_11__tree_nodeIS5_PvEElEmmB7v160006Ev, symObjAddr: 0x97A0, symBinAddr: 0x10000CD10, symSize: 0x30 }
  - { offsetInCU: 0x1A815, offset: 0x1A815, size: 0x8, addend: 0x0, symName: __ZNSt3__16__treeINS_12__value_typeIyPN3LOB5LimitEEENS_19__map_value_compareIyS5_NS_4lessIyEELb1EEENS_9allocatorIS5_EEE14__erase_uniqueIyEEmRKT_, symObjAddr: 0x9880, symBinAddr: 0x10000CDF0, symSize: 0xA0 }
  - { offsetInCU: 0x1A864, offset: 0x1A864, size: 0x8, addend: 0x0, symName: __ZNSt3__16__treeINS_12__value_typeIyPN3LOB5LimitEEENS_19__map_value_compareIyS5_NS_4lessIyEELb1EEENS_9allocatorIS5_EEE4findIyEENS_15__tree_iteratorIS5_PNS_11__tree_nodeIS5_PvEElEERKT_, symObjAddr: 0x9920, symBinAddr: 0x10000CE90, symSize: 0xE0 }
  - { offsetInCU: 0x1A8B3, offset: 0x1A8B3, size: 0x8, addend: 0x0, symName: __ZNSt3__16__treeINS_12__value_typeIyPN3LOB5LimitEEENS_19__map_value_compareIyS5_NS_4lessIyEELb1EEENS_9allocatorIS5_EEE5eraseENS_21__tree_const_iteratorIS5_PNS_11__tree_nodeIS5_PvEElEE, symObjAddr: 0x9A00, symBinAddr: 0x10000CF70, symSize: 0x90 }
  - { offsetInCU: 0x1A917, offset: 0x1A917, size: 0x8, addend: 0x0, symName: __ZNSt3__121__tree_const_iteratorINS_12__value_typeIyPN3LOB5LimitEEEPNS_11__tree_nodeIS5_PvEElEC1B7v160006ENS_15__tree_iteratorIS5_S9_lEE, symObjAddr: 0x9A90, symBinAddr: 0x10000D000, symSize: 0x30 }
  - { offsetInCU: 0x1A950, offset: 0x1A950, size: 0x8, addend: 0x0, symName: __ZNSt3__16__treeINS_12__value_typeIyPN3LOB5LimitEEENS_19__map_value_compareIyS5_NS_4lessIyEELb1EEENS_9allocatorIS5_EEE13__lower_boundIyEENS_15__tree_iteratorIS5_PNS_11__tree_nodeIS5_PvEElEERKT_SI_PNS_15__tree_end_nodeIPNS_16__tree_node_baseISG_EEEE, symObjAddr: 0x9AC0, symBinAddr: 0x10000D030, symSize: 0x90 }
  - { offsetInCU: 0x1A9AE, offset: 0x1A9AE, size: 0x8, addend: 0x0, symName: __ZNKSt3__115__tree_iteratorINS_12__value_typeIyPN3LOB5LimitEEEPNS_11__tree_nodeIS5_PvEElEdeB7v160006Ev, symObjAddr: 0x9B50, symBinAddr: 0x10000D0C0, symSize: 0x20 }
  - { offsetInCU: 0x1A9D4, offset: 0x1A9D4, size: 0x8, addend: 0x0, symName: __ZNKSt3__121__tree_const_iteratorINS_12__value_typeIyPN3LOB5LimitEEEPNS_11__tree_nodeIS5_PvEElE8__get_npB7v160006Ev, symObjAddr: 0x9B70, symBinAddr: 0x10000D0E0, symSize: 0x20 }
  - { offsetInCU: 0x1A9FA, offset: 0x1A9FA, size: 0x8, addend: 0x0, symName: __ZNSt3__16__treeINS_12__value_typeIyPN3LOB5LimitEEENS_19__map_value_compareIyS5_NS_4lessIyEELb1EEENS_9allocatorIS5_EEE21__remove_node_pointerEPNS_11__tree_nodeIS5_PvEE, symObjAddr: 0x9B90, symBinAddr: 0x10000D100, symSize: 0x90 }
  - { offsetInCU: 0x1AA40, offset: 0x1AA40, size: 0x8, addend: 0x0, symName: __ZNKSt3__121__tree_const_iteratorINS_12__value_typeIyPN3LOB5LimitEEEPNS_11__tree_nodeIS5_PvEElEdeB7v160006Ev, symObjAddr: 0x9C20, symBinAddr: 0x10000D190, symSize: 0x20 }
  - { offsetInCU: 0x1AA66, offset: 0x1AA66, size: 0x8, addend: 0x0, symName: __ZNSt3__121__tree_const_iteratorINS_12__value_typeIyPN3LOB5LimitEEEPNS_11__tree_nodeIS5_PvEElEC2B7v160006ENS_15__tree_iteratorIS5_S9_lEE, symObjAddr: 0xA2A0, symBinAddr: 0x10000D810, symSize: 0x20 }
  - { offsetInCU: 0x1AA9F, offset: 0x1AA9F, size: 0x8, addend: 0x0, symName: __ZN3LOB5LimitD2Ev, symObjAddr: 0xA2C0, symBinAddr: 0x10000D830, symSize: 0x30 }
  - { offsetInCU: 0x1AACB, offset: 0x1AACB, size: 0x8, addend: 0x0, symName: __ZNSt3__113unordered_mapIiNS_15__list_iteratorIN3LOB5OrderEPvEENS_4hashIiEENS_8equal_toIiEENS_9allocatorINS_4pairIKiS5_EEEEED1B7v160006Ev, symObjAddr: 0xA2F0, symBinAddr: 0x10000D860, symSize: 0x20 }
  - { offsetInCU: 0x1AAF5, offset: 0x1AAF5, size: 0x8, addend: 0x0, symName: __ZNSt3__14listIN3LOB5OrderENS_9allocatorIS2_EEED1Ev, symObjAddr: 0xA310, symBinAddr: 0x10000D880, symSize: 0x20 }
  - { offsetInCU: 0x1AB22, offset: 0x1AB22, size: 0x8, addend: 0x0, symName: __ZNSt3__113unordered_mapIiNS_15__list_iteratorIN3LOB5OrderEPvEENS_4hashIiEENS_8equal_toIiEENS_9allocatorINS_4pairIKiS5_EEEEED2B7v160006Ev, symObjAddr: 0xA330, symBinAddr: 0x10000D8A0, symSize: 0x20 }
  - { offsetInCU: 0x1AB4C, offset: 0x1AB4C, size: 0x8, addend: 0x0, symName: __ZNSt3__112__hash_tableINS_17__hash_value_typeIiNS_15__list_iteratorIN3LOB5OrderEPvEEEENS_22__unordered_map_hasherIiS7_NS_4hashIiEENS_8equal_toIiEELb1EEENS_21__unordered_map_equalIiS7_SC_SA_Lb1EEENS_9allocatorIS7_EEED1Ev, symObjAddr: 0xA350, symBinAddr: 0x10000D8C0, symSize: 0x20 }
  - { offsetInCU: 0x1AB78, offset: 0x1AB78, size: 0x8, addend: 0x0, symName: __ZNSt3__112__hash_tableINS_17__hash_value_typeIiNS_15__list_iteratorIN3LOB5OrderEPvEEEENS_22__unordered_map_hasherIiS7_NS_4hashIiEENS_8equal_toIiEELb1EEENS_21__unordered_map_equalIiS7_SC_SA_Lb1EEENS_9allocatorIS7_EEED2Ev, symObjAddr: 0xA370, symBinAddr: 0x10000D8E0, symSize: 0x50 }
  - { offsetInCU: 0x1ABA4, offset: 0x1ABA4, size: 0x8, addend: 0x0, symName: __ZNSt3__112__hash_tableINS_17__hash_value_typeIiNS_15__list_iteratorIN3LOB5OrderEPvEEEENS_22__unordered_map_hasherIiS7_NS_4hashIiEENS_8equal_toIiEELb1EEENS_21__unordered_map_equalIiS7_SC_SA_Lb1EEENS_9allocatorIS7_EEE17__deallocate_nodeEPNS_16__hash_node_baseIPNS_11__hash_nodeIS7_S5_EEEE, symObjAddr: 0xA3C0, symBinAddr: 0x10000D930, symSize: 0xA0 }
  - { offsetInCU: 0x1AC0F, offset: 0x1AC0F, size: 0x8, addend: 0x0, symName: __ZNSt3__110unique_ptrIA_PNS_16__hash_node_baseIPNS_11__hash_nodeINS_17__hash_value_typeIiNS_15__list_iteratorIN3LOB5OrderEPvEEEES7_EEEENS_25__bucket_list_deallocatorINS_9allocatorISD_EEEEED1B7v160006Ev, symObjAddr: 0xA470, symBinAddr: 0x10000D9E0, symSize: 0x20 }
  - { offsetInCU: 0x1AC39, offset: 0x1AC39, size: 0x8, addend: 0x0, symName: __ZNSt3__110unique_ptrIA_PNS_16__hash_node_baseIPNS_11__hash_nodeINS_17__hash_value_typeIiNS_15__list_iteratorIN3LOB5OrderEPvEEEES7_EEEENS_25__bucket_list_deallocatorINS_9allocatorISD_EEEEED2B7v160006Ev, symObjAddr: 0xA490, symBinAddr: 0x10000DA00, symSize: 0x20 }
  - { offsetInCU: 0x1AC63, offset: 0x1AC63, size: 0x8, addend: 0x0, symName: __ZNSt3__110unique_ptrIA_PNS_16__hash_node_baseIPNS_11__hash_nodeINS_17__hash_value_typeIiNS_15__list_iteratorIN3LOB5OrderEPvEEEES7_EEEENS_25__bucket_list_deallocatorINS_9allocatorISD_EEEEE5resetB7v160006EDn, symObjAddr: 0xA4B0, symBinAddr: 0x10000DA20, symSize: 0x60 }
  - { offsetInCU: 0x1ACA4, offset: 0x1ACA4, size: 0x8, addend: 0x0, symName: __ZNSt3__14listIN3LOB5OrderENS_9allocatorIS2_EEED2Ev, symObjAddr: 0xA510, symBinAddr: 0x10000DA80, symSize: 0x20 }
  - { offsetInCU: 0x1ACD1, offset: 0x1ACD1, size: 0x8, addend: 0x0, symName: __ZNSt3__110__list_impIN3LOB5OrderENS_9allocatorIS2_EEED2Ev, symObjAddr: 0xA530, symBinAddr: 0x10000DAA0, symSize: 0x40 }
  - { offsetInCU: 0x1ACFD, offset: 0x1ACFD, size: 0x8, addend: 0x0, symName: __ZNSt3__112__hash_tableINS_17__hash_value_typeIiNS_15__list_iteratorIN3LOB5OrderEPvEEEENS_22__unordered_map_hasherIiS7_NS_4hashIiEENS_8equal_toIiEELb1EEENS_21__unordered_map_equalIiS7_SC_SA_Lb1EEENS_9allocatorIS7_EEE14__erase_uniqueIiEEmRKT_, symObjAddr: 0xA580, symBinAddr: 0x10000DAF0, symSize: 0x90 }
  - { offsetInCU: 0x1AD4C, offset: 0x1AD4C, size: 0x8, addend: 0x0, symName: __ZNSt3__112__hash_tableINS_17__hash_value_typeIiNS_15__list_iteratorIN3LOB5OrderEPvEEEENS_22__unordered_map_hasherIiS7_NS_4hashIiEENS_8equal_toIiEELb1EEENS_21__unordered_map_equalIiS7_SC_SA_Lb1EEENS_9allocatorIS7_EEE4findIiEENS_15__hash_iteratorIPNS_11__hash_nodeIS7_S5_EEEERKT_, symObjAddr: 0xA610, symBinAddr: 0x10000DB80, symSize: 0x180 }
  - { offsetInCU: 0x1ADD6, offset: 0x1ADD6, size: 0x8, addend: 0x0, symName: __ZNSt3__112__hash_tableINS_17__hash_value_typeIiNS_15__list_iteratorIN3LOB5OrderEPvEEEENS_22__unordered_map_hasherIiS7_NS_4hashIiEENS_8equal_toIiEELb1EEENS_21__unordered_map_equalIiS7_SC_SA_Lb1EEENS_9allocatorIS7_EEE3endEv, symObjAddr: 0xA7C0, symBinAddr: 0x10000DD30, symSize: 0x30 }
  - { offsetInCU: 0x1ADFE, offset: 0x1ADFE, size: 0x8, addend: 0x0, symName: __ZNSt3__112__hash_tableINS_17__hash_value_typeIiNS_15__list_iteratorIN3LOB5OrderEPvEEEENS_22__unordered_map_hasherIiS7_NS_4hashIiEENS_8equal_toIiEELb1EEENS_21__unordered_map_equalIiS7_SC_SA_Lb1EEENS_9allocatorIS7_EEE5eraseENS_21__hash_const_iteratorIPNS_11__hash_nodeIS7_S5_EEEE, symObjAddr: 0xA7F0, symBinAddr: 0x10000DD60, symSize: 0x70 }
  - { offsetInCU: 0x1AE53, offset: 0x1AE53, size: 0x8, addend: 0x0, symName: __ZNSt3__121__hash_const_iteratorIPNS_11__hash_nodeINS_17__hash_value_typeIiNS_15__list_iteratorIN3LOB5OrderEPvEEEES6_EEEC1B7v160006ERKNS_15__hash_iteratorISA_EE, symObjAddr: 0xA860, symBinAddr: 0x10000DDD0, symSize: 0x30 }
  - { offsetInCU: 0x1AE8C, offset: 0x1AE8C, size: 0x8, addend: 0x0, symName: __ZNSt3__115__hash_iteratorIPNS_11__hash_nodeINS_17__hash_value_typeIiNS_15__list_iteratorIN3LOB5OrderEPvEEEES6_EEEppB7v160006Ev, symObjAddr: 0xA890, symBinAddr: 0x10000DE00, symSize: 0x20 }
  - { offsetInCU: 0x1AEB2, offset: 0x1AEB2, size: 0x8, addend: 0x0, symName: __ZNSt3__112__hash_tableINS_17__hash_value_typeIiNS_15__list_iteratorIN3LOB5OrderEPvEEEENS_22__unordered_map_hasherIiS7_NS_4hashIiEENS_8equal_toIiEELb1EEENS_21__unordered_map_equalIiS7_SC_SA_Lb1EEENS_9allocatorIS7_EEE6removeENS_21__hash_const_iteratorIPNS_11__hash_nodeIS7_S5_EEEE, symObjAddr: 0xA8B0, symBinAddr: 0x10000DE20, symSize: 0x1F0 }
  - { offsetInCU: 0x1AF42, offset: 0x1AF42, size: 0x8, addend: 0x0, symName: __ZNSt3__121__hash_const_iteratorIPNS_11__hash_nodeINS_17__hash_value_typeIiNS_15__list_iteratorIN3LOB5OrderEPvEEEES6_EEEC2B7v160006ERKNS_15__hash_iteratorISA_EE, symObjAddr: 0xAAA0, symBinAddr: 0x10000E010, symSize: 0x20 }
  - { offsetInCU: 0x1AF7B, offset: 0x1AF7B, size: 0x8, addend: 0x0, symName: __ZNSt3__121__list_const_iteratorIN3LOB5OrderEPvEC2B7v160006ERKNS_15__list_iteratorIS2_S3_EE, symObjAddr: 0xAAC0, symBinAddr: 0x10000E030, symSize: 0x20 }
  - { offsetInCU: 0x64A8, offset: 0x216DB, size: 0x8, addend: 0x0, symName: __ZNSt3__119__debug_db_insert_cB7v160006INS_13unordered_mapIyN3LOB5OrderENS_4hashIyEENS_8equal_toIyEENS_9allocatorINS_4pairIKyS3_EEEEEEEEvPT_, symObjAddr: 0x7D0, symBinAddr: 0x10000E7D0, symSize: 0x10 }
  - { offsetInCU: 0x64D9, offset: 0x2170C, size: 0x8, addend: 0x0, symName: __ZNSt3__118__debug_db_erase_cB7v160006INS_12__hash_tableINS_17__hash_value_typeIyN3LOB5OrderEEENS_22__unordered_map_hasherIyS5_NS_4hashIyEENS_8equal_toIyEELb1EEENS_21__unordered_map_equalIyS5_SA_S8_Lb1EEENS_9allocatorIS5_EEEEEEvPT_, symObjAddr: 0xED0, symBinAddr: 0x10000EDF0, symSize: 0x10 }
  - { offsetInCU: 0x66BA, offset: 0x218ED, size: 0x8, addend: 0x0, symName: __ZNSt3__118generate_canonicalB7v160006IdLm53ENS_26linear_congruential_engineIjLj48271ELj0ELj2147483647EEEEET_RT1_, symObjAddr: 0x1C80, symBinAddr: 0x10000F440, symSize: 0x100 }
  - { offsetInCU: 0x8AB4, offset: 0x23CE7, size: 0x8, addend: 0x0, symName: _main, symObjAddr: 0x0, symBinAddr: 0x10000E0B0, symSize: 0x1F0 }
  - { offsetInCU: 0x8DA9, offset: 0x23FDC, size: 0x8, addend: 0x0, symName: __ZN3LOB14LimitOrderBookC1Ev, symObjAddr: 0x1F0, symBinAddr: 0x10000E2A0, symSize: 0x20 }
  - { offsetInCU: 0x8DD3, offset: 0x24006, size: 0x8, addend: 0x0, symName: __ZNSt3__126linear_congruential_engineIjLj48271ELj0ELj2147483647EEC1B7v160006Ev, symObjAddr: 0x210, symBinAddr: 0x10000E2C0, symSize: 0x20 }
  - { offsetInCU: 0x8E20, offset: 0x24053, size: 0x8, addend: 0x0, symName: __ZNSt3__119normal_distributionIdEC1B7v160006Edd, symObjAddr: 0x230, symBinAddr: 0x10000E2E0, symSize: 0x30 }
  - { offsetInCU: 0x8E6B, offset: 0x2409E, size: 0x8, addend: 0x0, symName: __ZNSt3__119normal_distributionIdEclB7v160006INS_26linear_congruential_engineIjLj48271ELj0ELj2147483647EEEEEdRT_, symObjAddr: 0x260, symBinAddr: 0x10000E310, symSize: 0x30 }
  - { offsetInCU: 0x8EA8, offset: 0x240DB, size: 0x8, addend: 0x0, symName: __ZN3LOB14LimitOrderBookD1Ev, symObjAddr: 0x290, symBinAddr: 0x10000E340, symSize: 0x20 }
  - { offsetInCU: 0x8ED4, offset: 0x24107, size: 0x8, addend: 0x0, symName: __ZN3LOB14LimitOrderBookC2Ev, symObjAddr: 0x2B0, symBinAddr: 0x10000E360, symSize: 0x60 }
  - { offsetInCU: 0x8EFE, offset: 0x24131, size: 0x8, addend: 0x0, symName: __ZN3LOB9LimitTreeILNS_4SideE1EEC1Ev, symObjAddr: 0x310, symBinAddr: 0x10000E3C0, symSize: 0x20 }
  - { offsetInCU: 0x8F2A, offset: 0x2415D, size: 0x8, addend: 0x0, symName: __ZN3LOB9LimitTreeILNS_4SideE0EEC1Ev, symObjAddr: 0x330, symBinAddr: 0x10000E3E0, symSize: 0x20 }
  - { offsetInCU: 0x8F56, offset: 0x24189, size: 0x8, addend: 0x0, symName: __ZNSt3__113unordered_mapIyN3LOB5OrderENS_4hashIyEENS_8equal_toIyEENS_9allocatorINS_4pairIKyS2_EEEEEC1B7v160006Ev, symObjAddr: 0x350, symBinAddr: 0x10000E400, symSize: 0x20 }
  - { offsetInCU: 0x8F80, offset: 0x241B3, size: 0x8, addend: 0x0, symName: __ZN3LOB9LimitTreeILNS_4SideE1EEC2Ev, symObjAddr: 0x370, symBinAddr: 0x10000E420, symSize: 0x50 }
  - { offsetInCU: 0x8FAC, offset: 0x241DF, size: 0x8, addend: 0x0, symName: __ZNSt3__13mapIyPN3LOB5LimitENS_4lessIyEENS_9allocatorINS_4pairIKyS3_EEEEEC1B7v160006Ev, symObjAddr: 0x3C0, symBinAddr: 0x10000E470, symSize: 0x20 }
  - { offsetInCU: 0x8FD6, offset: 0x24209, size: 0x8, addend: 0x0, symName: __ZNSt3__13mapIyPN3LOB5LimitENS_4lessIyEENS_9allocatorINS_4pairIKyS3_EEEEEC2B7v160006Ev, symObjAddr: 0x3E0, symBinAddr: 0x10000E490, symSize: 0x30 }
  - { offsetInCU: 0x9000, offset: 0x24233, size: 0x8, addend: 0x0, symName: __ZNSt3__119__map_value_compareIyNS_12__value_typeIyPN3LOB5LimitEEENS_4lessIyEELb1EEC1B7v160006ES7_, symObjAddr: 0x410, symBinAddr: 0x10000E4C0, symSize: 0x20 }
  - { offsetInCU: 0x9039, offset: 0x2426C, size: 0x8, addend: 0x0, symName: __ZNSt3__16__treeINS_12__value_typeIyPN3LOB5LimitEEENS_19__map_value_compareIyS5_NS_4lessIyEELb1EEENS_9allocatorIS5_EEEC1ERKS9_, symObjAddr: 0x430, symBinAddr: 0x10000E4E0, symSize: 0x30 }
  - { offsetInCU: 0x9074, offset: 0x242A7, size: 0x8, addend: 0x0, symName: __ZNSt3__119__map_value_compareIyNS_12__value_typeIyPN3LOB5LimitEEENS_4lessIyEELb1EEC2B7v160006ES7_, symObjAddr: 0x460, symBinAddr: 0x10000E510, symSize: 0x10 }
  - { offsetInCU: 0x90AD, offset: 0x242E0, size: 0x8, addend: 0x0, symName: __ZNSt3__16__treeINS_12__value_typeIyPN3LOB5LimitEEENS_19__map_value_compareIyS5_NS_4lessIyEELb1EEENS_9allocatorIS5_EEEC2ERKS9_, symObjAddr: 0x470, symBinAddr: 0x10000E520, symSize: 0x80 }
  - { offsetInCU: 0x90E8, offset: 0x2431B, size: 0x8, addend: 0x0, symName: __ZNSt3__117__compressed_pairINS_15__tree_end_nodeIPNS_16__tree_node_baseIPvEEEENS_9allocatorINS_11__tree_nodeINS_12__value_typeIyPN3LOB5LimitEEES3_EEEEEC1B7v160006ILb1EvEEv, symObjAddr: 0x4F0, symBinAddr: 0x10000E5A0, symSize: 0x20 }
  - { offsetInCU: 0x9122, offset: 0x24355, size: 0x8, addend: 0x0, symName: __ZNSt3__117__compressed_pairImNS_19__map_value_compareIyNS_12__value_typeIyPN3LOB5LimitEEENS_4lessIyEELb1EEEEC1B7v160006IiRKS9_EEOT_OT0_, symObjAddr: 0x520, symBinAddr: 0x10000E5C0, symSize: 0x30 }
  - { offsetInCU: 0x917A, offset: 0x243AD, size: 0x8, addend: 0x0, symName: __ZNSt3__117__compressed_pairINS_15__tree_end_nodeIPNS_16__tree_node_baseIPvEEEENS_9allocatorINS_11__tree_nodeINS_12__value_typeIyPN3LOB5LimitEEES3_EEEEEC2B7v160006ILb1EvEEv, symObjAddr: 0x590, symBinAddr: 0x10000E5F0, symSize: 0x30 }
  - { offsetInCU: 0x91AF, offset: 0x243E2, size: 0x8, addend: 0x0, symName: __ZNSt3__122__compressed_pair_elemINS_15__tree_end_nodeIPNS_16__tree_node_baseIPvEEEELi0ELb0EEC2B7v160006ENS_16__value_init_tagE, symObjAddr: 0x5C0, symBinAddr: 0x10000E620, symSize: 0x20 }
  - { offsetInCU: 0x91E3, offset: 0x24416, size: 0x8, addend: 0x0, symName: __ZNSt3__122__compressed_pair_elemINS_9allocatorINS_11__tree_nodeINS_12__value_typeIyPN3LOB5LimitEEEPvEEEELi1ELb1EEC2B7v160006ENS_16__value_init_tagE, symObjAddr: 0x5E0, symBinAddr: 0x10000E640, symSize: 0x20 }
  - { offsetInCU: 0x9217, offset: 0x2444A, size: 0x8, addend: 0x0, symName: __ZNSt3__115__tree_end_nodeIPNS_16__tree_node_baseIPvEEEC1B7v160006Ev, symObjAddr: 0x600, symBinAddr: 0x10000E660, symSize: 0x20 }
  - { offsetInCU: 0x9241, offset: 0x24474, size: 0x8, addend: 0x0, symName: __ZNSt3__115__tree_end_nodeIPNS_16__tree_node_baseIPvEEEC2B7v160006Ev, symObjAddr: 0x620, symBinAddr: 0x10000E680, symSize: 0x20 }
  - { offsetInCU: 0x926B, offset: 0x2449E, size: 0x8, addend: 0x0, symName: __ZNSt3__19allocatorINS_11__tree_nodeINS_12__value_typeIyPN3LOB5LimitEEEPvEEEC2B7v160006Ev, symObjAddr: 0x640, symBinAddr: 0x10000E6A0, symSize: 0x20 }
  - { offsetInCU: 0x9295, offset: 0x244C8, size: 0x8, addend: 0x0, symName: __ZNSt3__116__non_trivial_ifILb1ENS_9allocatorINS_11__tree_nodeINS_12__value_typeIyPN3LOB5LimitEEEPvEEEEEC2B7v160006Ev, symObjAddr: 0x660, symBinAddr: 0x10000E6C0, symSize: 0x10 }
  - { offsetInCU: 0x92BF, offset: 0x244F2, size: 0x8, addend: 0x0, symName: __ZNSt3__117__compressed_pairImNS_19__map_value_compareIyNS_12__value_typeIyPN3LOB5LimitEEENS_4lessIyEELb1EEEEC2B7v160006IiRKS9_EEOT_OT0_, symObjAddr: 0x670, symBinAddr: 0x10000E6D0, symSize: 0x40 }
  - { offsetInCU: 0x9317, offset: 0x2454A, size: 0x8, addend: 0x0, symName: __ZNSt3__122__compressed_pair_elemINS_19__map_value_compareIyNS_12__value_typeIyPN3LOB5LimitEEENS_4lessIyEELb1EEELi1ELb1EEC2B7v160006IRKS9_vEEOT_, symObjAddr: 0x6D0, symBinAddr: 0x10000E710, symSize: 0x10 }
  - { offsetInCU: 0x9359, offset: 0x2458C, size: 0x8, addend: 0x0, symName: __ZN3LOB9LimitTreeILNS_4SideE0EEC2Ev, symObjAddr: 0x720, symBinAddr: 0x10000E720, symSize: 0x50 }
  - { offsetInCU: 0x9385, offset: 0x245B8, size: 0x8, addend: 0x0, symName: __ZNSt3__113unordered_mapIyN3LOB5OrderENS_4hashIyEENS_8equal_toIyEENS_9allocatorINS_4pairIKyS2_EEEEEC2B7v160006Ev, symObjAddr: 0x770, symBinAddr: 0x10000E770, symSize: 0x40 }
  - { offsetInCU: 0x93AF, offset: 0x245E2, size: 0x8, addend: 0x0, symName: __ZNSt3__112__hash_tableINS_17__hash_value_typeIyN3LOB5OrderEEENS_22__unordered_map_hasherIyS4_NS_4hashIyEENS_8equal_toIyEELb1EEENS_21__unordered_map_equalIyS4_S9_S7_Lb1EEENS_9allocatorIS4_EEEC1Ev, symObjAddr: 0x7B0, symBinAddr: 0x10000E7B0, symSize: 0x20 }
  - { offsetInCU: 0x93DB, offset: 0x2460E, size: 0x8, addend: 0x0, symName: __ZNSt3__112__hash_tableINS_17__hash_value_typeIyN3LOB5OrderEEENS_22__unordered_map_hasherIyS4_NS_4hashIyEENS_8equal_toIyEELb1EEENS_21__unordered_map_equalIyS4_S9_S7_Lb1EEENS_9allocatorIS4_EEEC2Ev, symObjAddr: 0x7E0, symBinAddr: 0x10000E7E0, symSize: 0x80 }
  - { offsetInCU: 0x9407, offset: 0x2463A, size: 0x8, addend: 0x0, symName: __ZNSt3__110unique_ptrIA_PNS_16__hash_node_baseIPNS_11__hash_nodeINS_17__hash_value_typeIyN3LOB5OrderEEEPvEEEENS_25__bucket_list_deallocatorINS_9allocatorISB_EEEEEC1B7v160006ILb1EvEEv, symObjAddr: 0x860, symBinAddr: 0x10000E860, symSize: 0x20 }
  - { offsetInCU: 0x943C, offset: 0x2466F, size: 0x8, addend: 0x0, symName: __ZNSt3__117__compressed_pairINS_16__hash_node_baseIPNS_11__hash_nodeINS_17__hash_value_typeIyN3LOB5OrderEEEPvEEEENS_9allocatorIS8_EEEC1B7v160006ILb1EvEEv, symObjAddr: 0x880, symBinAddr: 0x10000E880, symSize: 0x20 }
  - { offsetInCU: 0x9476, offset: 0x246A9, size: 0x8, addend: 0x0, symName: __ZNSt3__117__compressed_pairImNS_22__unordered_map_hasherIyNS_17__hash_value_typeIyN3LOB5OrderEEENS_4hashIyEENS_8equal_toIyEELb1EEEEC1B7v160006IiNS_18__default_init_tagEEEOT_OT0_, symObjAddr: 0x8A0, symBinAddr: 0x10000E8A0, symSize: 0x30 }
  - { offsetInCU: 0x94D3, offset: 0x24706, size: 0x8, addend: 0x0, symName: __ZNSt3__117__compressed_pairIfNS_21__unordered_map_equalIyNS_17__hash_value_typeIyN3LOB5OrderEEENS_8equal_toIyEENS_4hashIyEELb1EEEEC1B7v160006IfNS_18__default_init_tagEEEOT_OT0_, symObjAddr: 0x8D0, symBinAddr: 0x10000E8D0, symSize: 0x30 }
  - { offsetInCU: 0x952B, offset: 0x2475E, size: 0x8, addend: 0x0, symName: __ZNSt3__110unique_ptrIA_PNS_16__hash_node_baseIPNS_11__hash_nodeINS_17__hash_value_typeIyN3LOB5OrderEEEPvEEEENS_25__bucket_list_deallocatorINS_9allocatorISB_EEEEEC2B7v160006ILb1EvEEv, symObjAddr: 0x900, symBinAddr: 0x10000E900, symSize: 0x30 }
  - { offsetInCU: 0x9565, offset: 0x24798, size: 0x8, addend: 0x0, symName: __ZNSt3__117__compressed_pairIPPNS_16__hash_node_baseIPNS_11__hash_nodeINS_17__hash_value_typeIyN3LOB5OrderEEEPvEEEENS_25__bucket_list_deallocatorINS_9allocatorISB_EEEEEC1B7v160006INS_16__value_init_tagESJ_EEOT_OT0_, symObjAddr: 0x930, symBinAddr: 0x10000E930, symSize: 0x30 }
  - { offsetInCU: 0x95BD, offset: 0x247F0, size: 0x8, addend: 0x0, symName: __ZNSt3__117__compressed_pairIPPNS_16__hash_node_baseIPNS_11__hash_nodeINS_17__hash_value_typeIyN3LOB5OrderEEEPvEEEENS_25__bucket_list_deallocatorINS_9allocatorISB_EEEEEC2B7v160006INS_16__value_init_tagESJ_EEOT_OT0_, symObjAddr: 0x960, symBinAddr: 0x10000E960, symSize: 0x40 }
  - { offsetInCU: 0x9615, offset: 0x24848, size: 0x8, addend: 0x0, symName: __ZNSt3__122__compressed_pair_elemIPPNS_16__hash_node_baseIPNS_11__hash_nodeINS_17__hash_value_typeIyN3LOB5OrderEEEPvEEEELi0ELb0EEC2B7v160006ENS_16__value_init_tagE, symObjAddr: 0x9A0, symBinAddr: 0x10000E9A0, symSize: 0x20 }
  - { offsetInCU: 0x9649, offset: 0x2487C, size: 0x8, addend: 0x0, symName: __ZNSt3__122__compressed_pair_elemINS_25__bucket_list_deallocatorINS_9allocatorIPNS_16__hash_node_baseIPNS_11__hash_nodeINS_17__hash_value_typeIyN3LOB5OrderEEEPvEEEEEEEELi1ELb0EEC2B7v160006ENS_16__value_init_tagE, symObjAddr: 0x9C0, symBinAddr: 0x10000E9C0, symSize: 0x20 }
  - { offsetInCU: 0x967D, offset: 0x248B0, size: 0x8, addend: 0x0, symName: __ZNSt3__125__bucket_list_deallocatorINS_9allocatorIPNS_16__hash_node_baseIPNS_11__hash_nodeINS_17__hash_value_typeIyN3LOB5OrderEEEPvEEEEEEEC1B7v160006Ev, symObjAddr: 0x9E0, symBinAddr: 0x10000E9E0, symSize: 0x20 }
  - { offsetInCU: 0x96A7, offset: 0x248DA, size: 0x8, addend: 0x0, symName: __ZNSt3__125__bucket_list_deallocatorINS_9allocatorIPNS_16__hash_node_baseIPNS_11__hash_nodeINS_17__hash_value_typeIyN3LOB5OrderEEEPvEEEEEEEC2B7v160006Ev, symObjAddr: 0xA00, symBinAddr: 0x10000EA00, symSize: 0x40 }
  - { offsetInCU: 0x96D1, offset: 0x24904, size: 0x8, addend: 0x0, symName: __ZNSt3__117__compressed_pairImNS_9allocatorIPNS_16__hash_node_baseIPNS_11__hash_nodeINS_17__hash_value_typeIyN3LOB5OrderEEEPvEEEEEEEC1B7v160006IiNS_18__default_init_tagEEEOT_OT0_, symObjAddr: 0xA40, symBinAddr: 0x10000EA40, symSize: 0x30 }
  - { offsetInCU: 0x9729, offset: 0x2495C, size: 0x8, addend: 0x0, symName: __ZNSt3__117__compressed_pairImNS_9allocatorIPNS_16__hash_node_baseIPNS_11__hash_nodeINS_17__hash_value_typeIyN3LOB5OrderEEEPvEEEEEEEC2B7v160006IiNS_18__default_init_tagEEEOT_OT0_, symObjAddr: 0xA70, symBinAddr: 0x10000EA70, symSize: 0x40 }
  - { offsetInCU: 0x9781, offset: 0x249B4, size: 0x8, addend: 0x0, symName: __ZNSt3__122__compressed_pair_elemINS_9allocatorIPNS_16__hash_node_baseIPNS_11__hash_nodeINS_17__hash_value_typeIyN3LOB5OrderEEEPvEEEEEELi1ELb1EEC2B7v160006ENS_18__default_init_tagE, symObjAddr: 0xAB0, symBinAddr: 0x10000EAB0, symSize: 0x20 }
  - { offsetInCU: 0x97B5, offset: 0x249E8, size: 0x8, addend: 0x0, symName: __ZNSt3__19allocatorIPNS_16__hash_node_baseIPNS_11__hash_nodeINS_17__hash_value_typeIyN3LOB5OrderEEEPvEEEEEC2B7v160006Ev, symObjAddr: 0xAD0, symBinAddr: 0x10000EAD0, symSize: 0x20 }
  - { offsetInCU: 0x97DF, offset: 0x24A12, size: 0x8, addend: 0x0, symName: __ZNSt3__116__non_trivial_ifILb1ENS_9allocatorIPNS_16__hash_node_baseIPNS_11__hash_nodeINS_17__hash_value_typeIyN3LOB5OrderEEEPvEEEEEEEC2B7v160006Ev, symObjAddr: 0xAF0, symBinAddr: 0x10000EAF0, symSize: 0x10 }
  - { offsetInCU: 0x9809, offset: 0x24A3C, size: 0x8, addend: 0x0, symName: __ZNSt3__117__compressed_pairINS_16__hash_node_baseIPNS_11__hash_nodeINS_17__hash_value_typeIyN3LOB5OrderEEEPvEEEENS_9allocatorIS8_EEEC2B7v160006ILb1EvEEv, symObjAddr: 0xB00, symBinAddr: 0x10000EB00, symSize: 0x30 }
  - { offsetInCU: 0x983E, offset: 0x24A71, size: 0x8, addend: 0x0, symName: __ZNSt3__122__compressed_pair_elemINS_16__hash_node_baseIPNS_11__hash_nodeINS_17__hash_value_typeIyN3LOB5OrderEEEPvEEEELi0ELb0EEC2B7v160006ENS_16__value_init_tagE, symObjAddr: 0xB30, symBinAddr: 0x10000EB30, symSize: 0x20 }
  - { offsetInCU: 0x9872, offset: 0x24AA5, size: 0x8, addend: 0x0, symName: __ZNSt3__122__compressed_pair_elemINS_9allocatorINS_11__hash_nodeINS_17__hash_value_typeIyN3LOB5OrderEEEPvEEEELi1ELb1EEC2B7v160006ENS_16__value_init_tagE, symObjAddr: 0xB50, symBinAddr: 0x10000EB50, symSize: 0x20 }
  - { offsetInCU: 0x98A6, offset: 0x24AD9, size: 0x8, addend: 0x0, symName: __ZNSt3__116__hash_node_baseIPNS_11__hash_nodeINS_17__hash_value_typeIyN3LOB5OrderEEEPvEEEC1B7v160006Ev, symObjAddr: 0xB70, symBinAddr: 0x10000EB70, symSize: 0x20 }
  - { offsetInCU: 0x98D0, offset: 0x24B03, size: 0x8, addend: 0x0, symName: __ZNSt3__116__hash_node_baseIPNS_11__hash_nodeINS_17__hash_value_typeIyN3LOB5OrderEEEPvEEEC2B7v160006Ev, symObjAddr: 0xB90, symBinAddr: 0x10000EB90, symSize: 0x20 }
  - { offsetInCU: 0x98FA, offset: 0x24B2D, size: 0x8, addend: 0x0, symName: __ZNSt3__19allocatorINS_11__hash_nodeINS_17__hash_value_typeIyN3LOB5OrderEEEPvEEEC2B7v160006Ev, symObjAddr: 0xBB0, symBinAddr: 0x10000EBB0, symSize: 0x20 }
  - { offsetInCU: 0x9924, offset: 0x24B57, size: 0x8, addend: 0x0, symName: __ZNSt3__116__non_trivial_ifILb1ENS_9allocatorINS_11__hash_nodeINS_17__hash_value_typeIyN3LOB5OrderEEEPvEEEEEC2B7v160006Ev, symObjAddr: 0xBD0, symBinAddr: 0x10000EBD0, symSize: 0x10 }
  - { offsetInCU: 0x994E, offset: 0x24B81, size: 0x8, addend: 0x0, symName: __ZNSt3__117__compressed_pairImNS_22__unordered_map_hasherIyNS_17__hash_value_typeIyN3LOB5OrderEEENS_4hashIyEENS_8equal_toIyEELb1EEEEC2B7v160006IiNS_18__default_init_tagEEEOT_OT0_, symObjAddr: 0xBE0, symBinAddr: 0x10000EBE0, symSize: 0x40 }
  - { offsetInCU: 0x99A6, offset: 0x24BD9, size: 0x8, addend: 0x0, symName: __ZNSt3__122__compressed_pair_elemINS_22__unordered_map_hasherIyNS_17__hash_value_typeIyN3LOB5OrderEEENS_4hashIyEENS_8equal_toIyEELb1EEELi1ELb1EEC2B7v160006ENS_18__default_init_tagE, symObjAddr: 0xC20, symBinAddr: 0x10000EC20, symSize: 0x20 }
  - { offsetInCU: 0x99DA, offset: 0x24C0D, size: 0x8, addend: 0x0, symName: __ZNSt3__122__unordered_map_hasherIyNS_17__hash_value_typeIyN3LOB5OrderEEENS_4hashIyEENS_8equal_toIyEELb1EEC2B7v160006Ev, symObjAddr: 0xC40, symBinAddr: 0x10000EC40, symSize: 0x10 }
  - { offsetInCU: 0x9A04, offset: 0x24C37, size: 0x8, addend: 0x0, symName: __ZNSt3__117__compressed_pairIfNS_21__unordered_map_equalIyNS_17__hash_value_typeIyN3LOB5OrderEEENS_8equal_toIyEENS_4hashIyEELb1EEEEC2B7v160006IfNS_18__default_init_tagEEEOT_OT0_, symObjAddr: 0xC50, symBinAddr: 0x10000EC50, symSize: 0x40 }
  - { offsetInCU: 0x9A5C, offset: 0x24C8F, size: 0x8, addend: 0x0, symName: __ZNSt3__122__compressed_pair_elemINS_21__unordered_map_equalIyNS_17__hash_value_typeIyN3LOB5OrderEEENS_8equal_toIyEENS_4hashIyEELb1EEELi1ELb1EEC2B7v160006ENS_18__default_init_tagE, symObjAddr: 0xCB0, symBinAddr: 0x10000EC90, symSize: 0x20 }
  - { offsetInCU: 0x9A90, offset: 0x24CC3, size: 0x8, addend: 0x0, symName: __ZNSt3__121__unordered_map_equalIyNS_17__hash_value_typeIyN3LOB5OrderEEENS_8equal_toIyEENS_4hashIyEELb1EEC2B7v160006Ev, symObjAddr: 0xCD0, symBinAddr: 0x10000ECB0, symSize: 0x10 }
  - { offsetInCU: 0x9ABA, offset: 0x24CED, size: 0x8, addend: 0x0, symName: __ZN3LOB14LimitOrderBookD2Ev, symObjAddr: 0xCE0, symBinAddr: 0x10000ECC0, symSize: 0x40 }
  - { offsetInCU: 0x9AE6, offset: 0x24D19, size: 0x8, addend: 0x0, symName: __ZNSt3__113unordered_mapIyN3LOB5OrderENS_4hashIyEENS_8equal_toIyEENS_9allocatorINS_4pairIKyS2_EEEEED1B7v160006Ev, symObjAddr: 0xD20, symBinAddr: 0x10000ED00, symSize: 0x20 }
  - { offsetInCU: 0x9B10, offset: 0x24D43, size: 0x8, addend: 0x0, symName: __ZN3LOB9LimitTreeILNS_4SideE0EED1Ev, symObjAddr: 0xD40, symBinAddr: 0x10000ED20, symSize: 0x20 }
  - { offsetInCU: 0x9B3C, offset: 0x24D6F, size: 0x8, addend: 0x0, symName: __ZN3LOB9LimitTreeILNS_4SideE1EED1Ev, symObjAddr: 0xD60, symBinAddr: 0x10000ED40, symSize: 0x20 }
  - { offsetInCU: 0x9B68, offset: 0x24D9B, size: 0x8, addend: 0x0, symName: __ZNSt3__113unordered_mapIyN3LOB5OrderENS_4hashIyEENS_8equal_toIyEENS_9allocatorINS_4pairIKyS2_EEEEED2B7v160006Ev, symObjAddr: 0xD80, symBinAddr: 0x10000ED60, symSize: 0x20 }
  - { offsetInCU: 0x9B92, offset: 0x24DC5, size: 0x8, addend: 0x0, symName: __ZNSt3__112__hash_tableINS_17__hash_value_typeIyN3LOB5OrderEEENS_22__unordered_map_hasherIyS4_NS_4hashIyEENS_8equal_toIyEELb1EEENS_21__unordered_map_equalIyS4_S9_S7_Lb1EEENS_9allocatorIS4_EEED1Ev, symObjAddr: 0xDA0, symBinAddr: 0x10000ED80, symSize: 0x20 }
  - { offsetInCU: 0x9BBE, offset: 0x24DF1, size: 0x8, addend: 0x0, symName: __ZNSt3__112__hash_tableINS_17__hash_value_typeIyN3LOB5OrderEEENS_22__unordered_map_hasherIyS4_NS_4hashIyEENS_8equal_toIyEELb1EEENS_21__unordered_map_equalIyS4_S9_S7_Lb1EEENS_9allocatorIS4_EEED2Ev, symObjAddr: 0xDC0, symBinAddr: 0x10000EDA0, symSize: 0x50 }
  - { offsetInCU: 0x9BEA, offset: 0x24E1D, size: 0x8, addend: 0x0, symName: __ZNSt3__110unique_ptrIA_PNS_16__hash_node_baseIPNS_11__hash_nodeINS_17__hash_value_typeIyN3LOB5OrderEEEPvEEEENS_25__bucket_list_deallocatorINS_9allocatorISB_EEEEED1B7v160006Ev, symObjAddr: 0xEE0, symBinAddr: 0x10000EE00, symSize: 0x20 }
  - { offsetInCU: 0x9C14, offset: 0x24E47, size: 0x8, addend: 0x0, symName: __ZNSt3__110unique_ptrIA_PNS_16__hash_node_baseIPNS_11__hash_nodeINS_17__hash_value_typeIyN3LOB5OrderEEEPvEEEENS_25__bucket_list_deallocatorINS_9allocatorISB_EEEEED2B7v160006Ev, symObjAddr: 0x11E0, symBinAddr: 0x10000EE20, symSize: 0x20 }
  - { offsetInCU: 0x9C3E, offset: 0x24E71, size: 0x8, addend: 0x0, symName: __ZNSt3__110unique_ptrIA_PNS_16__hash_node_baseIPNS_11__hash_nodeINS_17__hash_value_typeIyN3LOB5OrderEEEPvEEEENS_25__bucket_list_deallocatorINS_9allocatorISB_EEEEE5resetB7v160006EDn, symObjAddr: 0x1200, symBinAddr: 0x10000EE40, symSize: 0x60 }
  - { offsetInCU: 0x9C7F, offset: 0x24EB2, size: 0x8, addend: 0x0, symName: __ZN3LOB9LimitTreeILNS_4SideE0EED2Ev, symObjAddr: 0x1420, symBinAddr: 0x10000EEA0, symSize: 0x20 }
  - { offsetInCU: 0x9CAB, offset: 0x24EDE, size: 0x8, addend: 0x0, symName: __ZNSt3__13mapIyPN3LOB5LimitENS_4lessIyEENS_9allocatorINS_4pairIKyS3_EEEEED1B7v160006Ev, symObjAddr: 0x1440, symBinAddr: 0x10000EEC0, symSize: 0x20 }
  - { offsetInCU: 0x9CD5, offset: 0x24F08, size: 0x8, addend: 0x0, symName: __ZNSt3__13mapIyPN3LOB5LimitENS_4lessIyEENS_9allocatorINS_4pairIKyS3_EEEEED2B7v160006Ev, symObjAddr: 0x1460, symBinAddr: 0x10000EEE0, symSize: 0x20 }
  - { offsetInCU: 0x9CFF, offset: 0x24F32, size: 0x8, addend: 0x0, symName: __ZNSt3__16__treeINS_12__value_typeIyPN3LOB5LimitEEENS_19__map_value_compareIyS5_NS_4lessIyEELb1EEENS_9allocatorIS5_EEED1Ev, symObjAddr: 0x1480, symBinAddr: 0x10000EF00, symSize: 0x20 }
  - { offsetInCU: 0x9D2B, offset: 0x24F5E, size: 0x8, addend: 0x0, symName: __ZNSt3__16__treeINS_12__value_typeIyPN3LOB5LimitEEENS_19__map_value_compareIyS5_NS_4lessIyEELb1EEENS_9allocatorIS5_EEED2Ev, symObjAddr: 0x14A0, symBinAddr: 0x10000EF20, symSize: 0x30 }
  - { offsetInCU: 0x9D57, offset: 0x24F8A, size: 0x8, addend: 0x0, symName: __ZN3LOB9LimitTreeILNS_4SideE1EED2Ev, symObjAddr: 0x1790, symBinAddr: 0x10000EF50, symSize: 0x20 }
  - { offsetInCU: 0x9D83, offset: 0x24FB6, size: 0x8, addend: 0x0, symName: __ZNSt3__126linear_congruential_engineIjLj48271ELj0ELj2147483647EEC1B7v160006Ej, symObjAddr: 0x17B0, symBinAddr: 0x10000EF70, symSize: 0x30 }
  - { offsetInCU: 0x9DBB, offset: 0x24FEE, size: 0x8, addend: 0x0, symName: __ZNSt3__126linear_congruential_engineIjLj48271ELj0ELj2147483647EEC2B7v160006Ej, symObjAddr: 0x17E0, symBinAddr: 0x10000EFA0, symSize: 0x30 }
  - { offsetInCU: 0x9DF3, offset: 0x25026, size: 0x8, addend: 0x0, symName: __ZNSt3__126linear_congruential_engineIjLj48271ELj0ELj2147483647EE4seedB7v160006Ej, symObjAddr: 0x1810, symBinAddr: 0x10000EFD0, symSize: 0x30 }
  - { offsetInCU: 0x9E27, offset: 0x2505A, size: 0x8, addend: 0x0, symName: __ZNSt3__126linear_congruential_engineIjLj48271ELj0ELj2147483647EE4seedB7v160006ENS_17integral_constantIbLb0EEENS2_IbLb1EEEj, symObjAddr: 0x1840, symBinAddr: 0x10000F000, symSize: 0x50 }
  - { offsetInCU: 0x9E74, offset: 0x250A7, size: 0x8, addend: 0x0, symName: __ZNSt3__119normal_distributionIdEC2B7v160006Edd, symObjAddr: 0x1890, symBinAddr: 0x10000F050, symSize: 0x40 }
  - { offsetInCU: 0x9EBA, offset: 0x250ED, size: 0x8, addend: 0x0, symName: __ZNSt3__119normal_distributionIdE10param_typeC1B7v160006Edd, symObjAddr: 0x18D0, symBinAddr: 0x10000F090, symSize: 0x30 }
  - { offsetInCU: 0x9F00, offset: 0x25133, size: 0x8, addend: 0x0, symName: __ZNSt3__119normal_distributionIdE10param_typeC2B7v160006Edd, symObjAddr: 0x1900, symBinAddr: 0x10000F0C0, symSize: 0x30 }
  - { offsetInCU: 0x9F46, offset: 0x25179, size: 0x8, addend: 0x0, symName: __ZNSt3__119normal_distributionIdEclINS_26linear_congruential_engineIjLj48271ELj0ELj2147483647EEEEEdRT_RKNS1_10param_typeE, symObjAddr: 0x1930, symBinAddr: 0x10000F0F0, symSize: 0x170 }
  - { offsetInCU: 0xA019, offset: 0x2524C, size: 0x8, addend: 0x0, symName: __ZNSt3__125uniform_real_distributionIdEC1Edd, symObjAddr: 0x1AA0, symBinAddr: 0x10000F260, symSize: 0x30 }
  - { offsetInCU: 0xA05F, offset: 0x25292, size: 0x8, addend: 0x0, symName: __ZNSt3__125uniform_real_distributionIdEclB7v160006INS_26linear_congruential_engineIjLj48271ELj0ELj2147483647EEEEEdRT_, symObjAddr: 0x1AD0, symBinAddr: 0x10000F290, symSize: 0x30 }
  - { offsetInCU: 0xA09C, offset: 0x252CF, size: 0x8, addend: 0x0, symName: __ZNKSt3__119normal_distributionIdE10param_type6stddevB7v160006Ev, symObjAddr: 0x1B00, symBinAddr: 0x10000F2C0, symSize: 0x20 }
  - { offsetInCU: 0xA0C2, offset: 0x252F5, size: 0x8, addend: 0x0, symName: __ZNKSt3__119normal_distributionIdE10param_type4meanB7v160006Ev, symObjAddr: 0x1B20, symBinAddr: 0x10000F2E0, symSize: 0x20 }
  - { offsetInCU: 0xA0E8, offset: 0x2531B, size: 0x8, addend: 0x0, symName: __ZNSt3__125uniform_real_distributionIdEC2Edd, symObjAddr: 0x1B40, symBinAddr: 0x10000F300, symSize: 0x30 }
  - { offsetInCU: 0xA12E, offset: 0x25361, size: 0x8, addend: 0x0, symName: __ZNSt3__125uniform_real_distributionIdE10param_typeC1B7v160006Edd, symObjAddr: 0x1B70, symBinAddr: 0x10000F330, symSize: 0x30 }
  - { offsetInCU: 0xA174, offset: 0x253A7, size: 0x8, addend: 0x0, symName: __ZNSt3__125uniform_real_distributionIdE10param_typeC2B7v160006Edd, symObjAddr: 0x1BA0, symBinAddr: 0x10000F360, symSize: 0x30 }
  - { offsetInCU: 0xA1BA, offset: 0x253ED, size: 0x8, addend: 0x0, symName: __ZNSt3__125uniform_real_distributionIdEclINS_26linear_congruential_engineIjLj48271ELj0ELj2147483647EEEEEdRT_RKNS1_10param_typeE, symObjAddr: 0x1BD0, symBinAddr: 0x10000F390, symSize: 0x70 }
  - { offsetInCU: 0xA206, offset: 0x25439, size: 0x8, addend: 0x0, symName: __ZNKSt3__125uniform_real_distributionIdE10param_type1bB7v160006Ev, symObjAddr: 0x1C40, symBinAddr: 0x10000F400, symSize: 0x20 }
  - { offsetInCU: 0xA22C, offset: 0x2545F, size: 0x8, addend: 0x0, symName: __ZNKSt3__125uniform_real_distributionIdE10param_type1aB7v160006Ev, symObjAddr: 0x1C60, symBinAddr: 0x10000F420, symSize: 0x20 }
  - { offsetInCU: 0xA252, offset: 0x25485, size: 0x8, addend: 0x0, symName: __ZNSt3__126linear_congruential_engineIjLj48271ELj0ELj2147483647EE3maxB7v160006Ev, symObjAddr: 0x1D80, symBinAddr: 0x10000F540, symSize: 0x10 }
  - { offsetInCU: 0xA266, offset: 0x25499, size: 0x8, addend: 0x0, symName: __ZNSt3__126linear_congruential_engineIjLj48271ELj0ELj2147483647EE3minB7v160006Ev, symObjAddr: 0x1D90, symBinAddr: 0x10000F550, symSize: 0x10 }
  - { offsetInCU: 0xA27A, offset: 0x254AD, size: 0x8, addend: 0x0, symName: __ZNSt3__126linear_congruential_engineIjLj48271ELj0ELj2147483647EEclB7v160006Ev, symObjAddr: 0x1DA0, symBinAddr: 0x10000F560, symSize: 0x30 }
  - { offsetInCU: 0xA2AB, offset: 0x254DE, size: 0x8, addend: 0x0, symName: __ZNSt3__18__lce_taILy48271ELy0ELy2147483647ELy4294967295ELb1EE4nextB7v160006Ej, symObjAddr: 0x1DD0, symBinAddr: 0x10000F590, symSize: 0x72 }
...
