---
triple:          'x86_64-apple-darwin'
binary-path:     '/Users/christopherkontsis/Desktop/C++/Matching-Engine/src/a.out'
relocations:
  - { offsetInCU: 0x5C, offset: 0x5C, size: 0x8, addend: 0x0, symName: __ZNSt3__1L19piecewise_constructE, symObjAddr: 0xBBD0, symBinAddr: 0x10000FBA4, symSize: 0x0 }
  - { offsetInCU: 0xB860, offset: 0xB860, size: 0x8, addend: 0x0, symName: __ZNSt3__17advanceB7v160006INS_15__list_iteratorIPN3LOB5OrderEPvEEllvEEvRT_T0_, symObjAddr: 0x8FE0, symBinAddr: 0x10000B7A0, symSize: 0x50 }
  - { offsetInCU: 0xC766, offset: 0xC766, size: 0x8, addend: 0x0, symName: __ZNSt3__17advanceB7v160006INS_16reverse_iteratorINS_14__map_iteratorINS_15__tree_iteratorINS_12__value_typeIyPN3LOB5LimitEEEPNS_11__tree_nodeIS8_PvEElEEEEEEllvEEvRT_T0_, symObjAddr: 0x96D0, symBinAddr: 0x10000BE90, symSize: 0x50 }
  - { offsetInCU: 0xC7ED, offset: 0xC7ED, size: 0x8, addend: 0x0, symName: __ZNSt3__17advanceB7v160006INS_14__map_iteratorINS_15__tree_iteratorINS_12__value_typeIyPN3LOB5LimitEEEPNS_11__tree_nodeIS7_PvEElEEEEllvEEvRT_T0_, symObjAddr: 0x99C0, symBinAddr: 0x10000C180, symSize: 0x50 }
  - { offsetInCU: 0xE5F4, offset: 0xE5F4, size: 0x8, addend: 0x0, symName: __ZNSt3__1neB7v160006ERKNS_14__map_iteratorINS_15__tree_iteratorINS_12__value_typeIyPN3LOB5LimitEEEPNS_11__tree_nodeIS6_PvEElEEEESE_, symObjAddr: 0x16A0, symBinAddr: 0x100003E60, symSize: 0x30 }
  - { offsetInCU: 0xE631, offset: 0xE631, size: 0x8, addend: 0x0, symName: __ZNSt3__1neB7v160006ERKNS_15__tree_iteratorINS_12__value_typeIyPN3LOB5LimitEEEPNS_11__tree_nodeIS5_PvEElEESC_, symObjAddr: 0x1880, symBinAddr: 0x100004040, symSize: 0x30 }
  - { offsetInCU: 0xE66E, offset: 0xE66E, size: 0x8, addend: 0x0, symName: __ZNSt3__1eqB7v160006ERKNS_15__tree_iteratorINS_12__value_typeIyPN3LOB5LimitEEEPNS_11__tree_nodeIS5_PvEElEESC_, symObjAddr: 0x18B0, symBinAddr: 0x100004070, symSize: 0x30 }
  - { offsetInCU: 0xE744, offset: 0xE744, size: 0x8, addend: 0x0, symName: __ZNSt3__17launderB7v160006INS_4pairIKyPN3LOB5LimitEEEEEPT_S8_, symObjAddr: 0x1A10, symBinAddr: 0x1000041D0, symSize: 0x20 }
  - { offsetInCU: 0xE77B, offset: 0xE77B, size: 0x8, addend: 0x0, symName: __ZNSt3__19__launderB7v160006INS_4pairIKyPN3LOB5LimitEEEEEPT_S8_, symObjAddr: 0x1A30, symBinAddr: 0x1000041F0, symSize: 0x10 }
  - { offsetInCU: 0xE7B2, offset: 0xE7B2, size: 0x8, addend: 0x0, symName: __ZNSt3__125__debug_db_invalidate_allB7v160006INS_10__list_impIPN3LOB5OrderENS_9allocatorIS4_EEEEEEvPT_, symObjAddr: 0x1CB0, symBinAddr: 0x100004470, symSize: 0x10 }
  - { offsetInCU: 0xE816, offset: 0xE816, size: 0x8, addend: 0x0, symName: __ZNSt3__110destroy_atB7v160006IPN3LOB5OrderELi0EEEvPT_, symObjAddr: 0x1DB0, symBinAddr: 0x100004570, symSize: 0x20 }
  - { offsetInCU: 0xE84D, offset: 0xE84D, size: 0x8, addend: 0x0, symName: __ZNSt3__112__destroy_atB7v160006IPN3LOB5OrderELi0EEEvPT_, symObjAddr: 0x1DD0, symBinAddr: 0x100004590, symSize: 0x10 }
  - { offsetInCU: 0xE884, offset: 0xE884, size: 0x8, addend: 0x0, symName: __ZNSt3__119__libcpp_deallocateB7v160006EPvmm, symObjAddr: 0x1E30, symBinAddr: 0x1000045F0, symSize: 0x60 }
  - { offsetInCU: 0xE8E9, offset: 0xE8E9, size: 0x8, addend: 0x0, symName: __ZNSt3__124__is_overaligned_for_newB7v160006Em, symObjAddr: 0x1E90, symBinAddr: 0x100004650, symSize: 0x20 }
  - { offsetInCU: 0xE917, offset: 0xE917, size: 0x8, addend: 0x0, symName: __ZNSt3__127__do_deallocate_handle_sizeB7v160006IJSt11align_val_tEEEvPvmDpT_, symObjAddr: 0x1EB0, symBinAddr: 0x100004670, symSize: 0x30 }
  - { offsetInCU: 0xE96A, offset: 0xE96A, size: 0x8, addend: 0x0, symName: __ZNSt3__127__do_deallocate_handle_sizeB7v160006IJEEEvPvmDpT_, symObjAddr: 0x1EE0, symBinAddr: 0x1000046A0, symSize: 0x20 }
  - { offsetInCU: 0xE9A8, offset: 0xE9A8, size: 0x8, addend: 0x0, symName: __ZNSt3__124__libcpp_operator_deleteB7v160006IJPvSt11align_val_tEEEvDpT_, symObjAddr: 0x1F00, symBinAddr: 0x1000046C0, symSize: 0x30 }
  - { offsetInCU: 0xE9F1, offset: 0xE9F1, size: 0x8, addend: 0x0, symName: __ZNSt3__124__libcpp_operator_deleteB7v160006IJPvEEEvDpT_, symObjAddr: 0x1F30, symBinAddr: 0x1000046F0, symSize: 0x20 }
  - { offsetInCU: 0xEA26, offset: 0xEA26, size: 0x8, addend: 0x0, symName: __ZNSt3__116__tree_next_iterB7v160006IPNS_15__tree_end_nodeIPNS_16__tree_node_baseIPvEEEES5_EET_T0_, symObjAddr: 0x1F80, symBinAddr: 0x100004740, symSize: 0x90 }
  - { offsetInCU: 0xEA64, offset: 0xEA64, size: 0x8, addend: 0x0, symName: __ZNSt3__110__tree_minB7v160006IPNS_16__tree_node_baseIPvEEEET_S5_, symObjAddr: 0x2010, symBinAddr: 0x1000047D0, symSize: 0x30 }
  - { offsetInCU: 0xEA99, offset: 0xEA99, size: 0x8, addend: 0x0, symName: __ZNSt3__120__tree_is_left_childB7v160006IPNS_16__tree_node_baseIPvEEEEbT_, symObjAddr: 0x2040, symBinAddr: 0x100004800, symSize: 0x30 }
  - { offsetInCU: 0xEACE, offset: 0xEACE, size: 0x8, addend: 0x0, symName: __ZNSt3__110destroy_atB7v160006INS_4pairIKyPN3LOB5LimitEEELi0EEEvPT_, symObjAddr: 0x22B0, symBinAddr: 0x100004A70, symSize: 0x20 }
  - { offsetInCU: 0xEB05, offset: 0xEB05, size: 0x8, addend: 0x0, symName: __ZNSt3__112__destroy_atB7v160006INS_4pairIKyPN3LOB5LimitEEELi0EEEvPT_, symObjAddr: 0x22D0, symBinAddr: 0x100004A90, symSize: 0x10 }
  - { offsetInCU: 0xEB6F, offset: 0xEB6F, size: 0x8, addend: 0x0, symName: __ZNSt3__110destroy_atB7v160006INS_4pairIKyN3LOB5OrderEEELi0EEEvPT_, symObjAddr: 0x26D0, symBinAddr: 0x100004E90, symSize: 0x20 }
  - { offsetInCU: 0xEBA6, offset: 0xEBA6, size: 0x8, addend: 0x0, symName: __ZNSt3__112__destroy_atB7v160006INS_4pairIKyN3LOB5OrderEEELi0EEEvPT_, symObjAddr: 0x26F0, symBinAddr: 0x100004EB0, symSize: 0x10 }
  - { offsetInCU: 0xEBDD, offset: 0xEBDD, size: 0x8, addend: 0x0, symName: __ZNSt3__17launderB7v160006INS_4pairIKyN3LOB5OrderEEEEEPT_S7_, symObjAddr: 0x2720, symBinAddr: 0x100004EE0, symSize: 0x20 }
  - { offsetInCU: 0xEC14, offset: 0xEC14, size: 0x8, addend: 0x0, symName: __ZNSt3__19__launderB7v160006INS_4pairIKyN3LOB5OrderEEEEEPT_S7_, symObjAddr: 0x2740, symBinAddr: 0x100004F00, symSize: 0x10 }
  - { offsetInCU: 0xEC6F, offset: 0xEC6F, size: 0x8, addend: 0x0, symName: __ZNSt3__116__constrain_hashB7v160006Emm, symObjAddr: 0x2F20, symBinAddr: 0x1000056E0, symSize: 0x80 }
  - { offsetInCU: 0xECA9, offset: 0xECA9, size: 0x8, addend: 0x0, symName: __ZNSt3__13maxB7v160006ImEERKT_S3_S3_, symObjAddr: 0x31B0, symBinAddr: 0x100005970, symSize: 0x30 }
  - { offsetInCU: 0xECEC, offset: 0xECEC, size: 0x8, addend: 0x0, symName: __ZNSt3__116__is_hash_power2B7v160006Em, symObjAddr: 0x31E0, symBinAddr: 0x1000059A0, symSize: 0x40 }
  - { offsetInCU: 0xED18, offset: 0xED18, size: 0x8, addend: 0x0, symName: __ZNSt3__17launderB7v160006IKNS_4pairIKyN3LOB5OrderEEEEEPT_S8_, symObjAddr: 0x3430, symBinAddr: 0x100005BF0, symSize: 0x20 }
  - { offsetInCU: 0xED4F, offset: 0xED4F, size: 0x8, addend: 0x0, symName: __ZNSt3__19__launderB7v160006IKNS_4pairIKyN3LOB5OrderEEEEEPT_S8_, symObjAddr: 0x3450, symBinAddr: 0x100005C10, symSize: 0x10 }
  - { offsetInCU: 0xEDA4, offset: 0xEDA4, size: 0x8, addend: 0x0, symName: __ZNSt3__117__libcpp_allocateB7v160006Emm, symObjAddr: 0x3600, symBinAddr: 0x100005DC0, symSize: 0x60 }
  - { offsetInCU: 0xEDFE, offset: 0xEDFE, size: 0x8, addend: 0x0, symName: __ZNSt3__121__libcpp_operator_newB7v160006IJmSt11align_val_tEEEPvDpT_, symObjAddr: 0x3680, symBinAddr: 0x100005E40, symSize: 0x30 }
  - { offsetInCU: 0xEE4B, offset: 0xEE4B, size: 0x8, addend: 0x0, symName: __ZNSt3__121__libcpp_operator_newB7v160006IJmEEEPvDpT_, symObjAddr: 0x36B0, symBinAddr: 0x100005E70, symSize: 0x20 }
  - { offsetInCU: 0xEEA9, offset: 0xEEA9, size: 0x8, addend: 0x0, symName: __ZNSt3__112construct_atB7v160006INS_4pairIKyN3LOB5OrderEEEJRyS4_EPS5_EEPT_S9_DpOT0_, symObjAddr: 0x3800, symBinAddr: 0x100005FC0, symSize: 0x40 }
  - { offsetInCU: 0xEF2C, offset: 0xEF2C, size: 0x8, addend: 0x0, symName: __ZNSt3__116__next_hash_pow2B7v160006Em, symObjAddr: 0x3DA0, symBinAddr: 0x100006560, symSize: 0x60 }
  - { offsetInCU: 0xEF58, offset: 0xEF58, size: 0x8, addend: 0x0, symName: __ZNSt3__125__debug_db_invalidate_allB7v160006INS_12__hash_tableINS_17__hash_value_typeIyN3LOB5OrderEEENS_22__unordered_map_hasherIyS5_NS_4hashIyEENS_8equal_toIyEELb1EEENS_21__unordered_map_equalIyS5_SA_S8_Lb1EEENS_9allocatorIS5_EEEEEEvPT_, symObjAddr: 0x3E00, symBinAddr: 0x1000065C0, symSize: 0x10 }
  - { offsetInCU: 0xEFA5, offset: 0xEFA5, size: 0x8, addend: 0x0, symName: __ZNSt3__112__libcpp_clzB7v160006Em, symObjAddr: 0x40F0, symBinAddr: 0x1000068B0, symSize: 0x20 }
  - { offsetInCU: 0xEFD1, offset: 0xEFD1, size: 0x8, addend: 0x0, symName: __ZNSt3__13maxB7v160006ImNS_6__lessImmEEEERKT_S5_S5_T0_, symObjAddr: 0x4110, symBinAddr: 0x1000068D0, symSize: 0x50 }
  - { offsetInCU: 0xF066, offset: 0xF066, size: 0x8, addend: 0x0, symName: __ZNSt3__1eqB7v160006ERKNS_19__hash_map_iteratorINS_15__hash_iteratorIPNS_11__hash_nodeINS_17__hash_value_typeIyN3LOB5OrderEEEPvEEEEEESD_, symObjAddr: 0x4440, symBinAddr: 0x100006C00, symSize: 0x30 }
  - { offsetInCU: 0xF0A3, offset: 0xF0A3, size: 0x8, addend: 0x0, symName: __ZNSt3__120__throw_out_of_rangeB7v160006EPKc, symObjAddr: 0x44A0, symBinAddr: 0x100006C60, symSize: 0x70 }
  - { offsetInCU: 0xF0CD, offset: 0xF0CD, size: 0x8, addend: 0x0, symName: __ZNSt3__1eqB7v160006ERKNS_15__hash_iteratorIPNS_11__hash_nodeINS_17__hash_value_typeIyN3LOB5OrderEEEPvEEEESB_, symObjAddr: 0x46F0, symBinAddr: 0x100006EB0, symSize: 0x30 }
  - { offsetInCU: 0xF170, offset: 0xF170, size: 0x8, addend: 0x0, symName: __ZNSt3__14prevB7v160006INS_15__list_iteratorIPN3LOB5OrderEPvEEEENS_9enable_ifIXsr25__is_cpp17_input_iteratorIT_EE5valueES8_E4typeES8_NS_15iterator_traitsIS8_E15difference_typeE, symObjAddr: 0x4EB0, symBinAddr: 0x100007670, symSize: 0x50 }
  - { offsetInCU: 0xF1B3, offset: 0xF1B3, size: 0x8, addend: 0x0, symName: __ZNSt3__17launderB7v160006IKNS_4pairIKyPN3LOB5LimitEEEEEPT_S9_, symObjAddr: 0x5270, symBinAddr: 0x100007A30, symSize: 0x20 }
  - { offsetInCU: 0xF1EA, offset: 0xF1EA, size: 0x8, addend: 0x0, symName: __ZNSt3__19__launderB7v160006IKNS_4pairIKyPN3LOB5LimitEEEEEPT_S9_, symObjAddr: 0x5290, symBinAddr: 0x100007A50, symSize: 0x10 }
  - { offsetInCU: 0xF221, offset: 0xF221, size: 0x8, addend: 0x0, symName: __ZNSt3__119__debug_db_insert_cB7v160006INS_4listIPN3LOB5OrderENS_9allocatorIS4_EEEEEEvPT_, symObjAddr: 0x53D0, symBinAddr: 0x100007B90, symSize: 0x10 }
  - { offsetInCU: 0xF252, offset: 0xF252, size: 0x8, addend: 0x0, symName: __ZNSt3__119__debug_db_insert_cB7v160006INS_13unordered_mapIiNS_15__list_iteratorIPN3LOB5OrderEPvEENS_4hashIiEENS_8equal_toIiEENS_9allocatorINS_4pairIKiS7_EEEEEEEEvPT_, symObjAddr: 0x5590, symBinAddr: 0x100007D50, symSize: 0x10 }
  - { offsetInCU: 0xF2EA, offset: 0xF2EA, size: 0x8, addend: 0x0, symName: __ZNSt3__112construct_atB7v160006INS_4pairIKyPN3LOB5LimitEEEJRS2_RS5_EPS6_EEPT_SB_DpOT0_, symObjAddr: 0x6350, symBinAddr: 0x100008B10, symSize: 0x40 }
  - { offsetInCU: 0xF36D, offset: 0xF36D, size: 0x8, addend: 0x0, symName: __ZNSt3__127__tree_balance_after_insertB7v160006IPNS_16__tree_node_baseIPvEEEEvT_S5_, symObjAddr: 0x6450, symBinAddr: 0x100008C10, symSize: 0x240 }
  - { offsetInCU: 0xF3E9, offset: 0xF3E9, size: 0x8, addend: 0x0, symName: __ZNSt3__118__tree_left_rotateB7v160006IPNS_16__tree_node_baseIPvEEEEvT_, symObjAddr: 0x6690, symBinAddr: 0x100008E50, symSize: 0xD0 }
  - { offsetInCU: 0xF42B, offset: 0xF42B, size: 0x8, addend: 0x0, symName: __ZNSt3__119__tree_right_rotateB7v160006IPNS_16__tree_node_baseIPvEEEEvT_, symObjAddr: 0x6760, symBinAddr: 0x100008F20, symSize: 0xC0 }
  - { offsetInCU: 0xF4A4, offset: 0xF4A4, size: 0x8, addend: 0x0, symName: __ZNSt3__116forward_as_tupleB7v160006IJRKyEEENS_5tupleIJDpOT_EEES6_, symObjAddr: 0x6B20, symBinAddr: 0x1000092E0, symSize: 0x30 }
  - { offsetInCU: 0xF4DD, offset: 0xF4DD, size: 0x8, addend: 0x0, symName: __ZNSt3__116forward_as_tupleB7v160006IJEEENS_5tupleIJDpOT_EEES4_, symObjAddr: 0x6B50, symBinAddr: 0x100009310, symSize: 0x10 }
  - { offsetInCU: 0xF501, offset: 0xF501, size: 0x8, addend: 0x0, symName: __ZNSt3__112construct_atB7v160006INS_4pairIKyPN3LOB5LimitEEEJRKNS_21piecewise_construct_tENS_5tupleIJRS2_EEENSA_IJEEEEPS6_EEPT_SG_DpOT0_, symObjAddr: 0x6CB0, symBinAddr: 0x100009470, symSize: 0x50 }
  - { offsetInCU: 0xF5A2, offset: 0xF5A2, size: 0x8, addend: 0x0, symName: __ZNSt3__13getB7v160006ILm0EJRKyEEERNS_13tuple_elementIXT_ENS_5tupleIJDpT0_EEEE4typeERS7_, symObjAddr: 0x6DB0, symBinAddr: 0x100009570, symSize: 0x20 }
  - { offsetInCU: 0xF64C, offset: 0xF64C, size: 0x8, addend: 0x0, symName: __ZNSt3__112construct_atB7v160006IPN3LOB5OrderEJRKS3_EPS3_EEPT_S8_DpOT0_, symObjAddr: 0x72E0, symBinAddr: 0x100009AA0, symSize: 0x30 }
  - { offsetInCU: 0xF6FF, offset: 0xF6FF, size: 0x8, addend: 0x0, symName: __ZNSt3__112construct_atB7v160006INS_4pairIKiNS_15__list_iteratorIPN3LOB5OrderEPvEEEEJRKyS8_EPS9_EEPT_SE_DpOT0_, symObjAddr: 0x7BC0, symBinAddr: 0x10000A380, symSize: 0x40 }
  - { offsetInCU: 0xF782, offset: 0xF782, size: 0x8, addend: 0x0, symName: __ZNSt3__17launderB7v160006INS_4pairIKiNS_15__list_iteratorIPN3LOB5OrderEPvEEEEEEPT_SB_, symObjAddr: 0x7C80, symBinAddr: 0x10000A440, symSize: 0x20 }
  - { offsetInCU: 0xF7B9, offset: 0xF7B9, size: 0x8, addend: 0x0, symName: __ZNSt3__19__launderB7v160006INS_4pairIKiNS_15__list_iteratorIPN3LOB5OrderEPvEEEEEEPT_SB_, symObjAddr: 0x7CA0, symBinAddr: 0x10000A460, symSize: 0x10 }
  - { offsetInCU: 0xF7F0, offset: 0xF7F0, size: 0x8, addend: 0x0, symName: __ZNSt3__17launderB7v160006IKNS_4pairIKiNS_15__list_iteratorIPN3LOB5OrderEPvEEEEEEPT_SC_, symObjAddr: 0x7D80, symBinAddr: 0x10000A540, symSize: 0x20 }
  - { offsetInCU: 0xF827, offset: 0xF827, size: 0x8, addend: 0x0, symName: __ZNSt3__19__launderB7v160006IKNS_4pairIKiNS_15__list_iteratorIPN3LOB5OrderEPvEEEEEEPT_SC_, symObjAddr: 0x7DA0, symBinAddr: 0x10000A560, symSize: 0x10 }
  - { offsetInCU: 0xF891, offset: 0xF891, size: 0x8, addend: 0x0, symName: __ZNSt3__125__debug_db_invalidate_allB7v160006INS_12__hash_tableINS_17__hash_value_typeIiNS_15__list_iteratorIPN3LOB5OrderEPvEEEENS_22__unordered_map_hasherIiS9_NS_4hashIiEENS_8equal_toIiEELb1EEENS_21__unordered_map_equalIiS9_SE_SC_Lb1EEENS_9allocatorIS9_EEEEEEvPT_, symObjAddr: 0x89C0, symBinAddr: 0x10000B180, symSize: 0x10 }
  - { offsetInCU: 0xF8C2, offset: 0xF8C2, size: 0x8, addend: 0x0, symName: __ZNSt3__110destroy_atB7v160006INS_4pairIKiNS_15__list_iteratorIPN3LOB5OrderEPvEEEELi0EEEvPT_, symObjAddr: 0x8ED0, symBinAddr: 0x10000B690, symSize: 0x20 }
  - { offsetInCU: 0xF8F9, offset: 0xF8F9, size: 0x8, addend: 0x0, symName: __ZNSt3__112__destroy_atB7v160006INS_4pairIKiNS_15__list_iteratorIPN3LOB5OrderEPvEEEELi0EEEvPT_, symObjAddr: 0x8EF0, symBinAddr: 0x10000B6B0, symSize: 0x10 }
  - { offsetInCU: 0xF930, offset: 0xF930, size: 0x8, addend: 0x0, symName: __ZNSt3__121__convert_to_integralB7v160006El, symObjAddr: 0x9030, symBinAddr: 0x10000B7F0, symSize: 0x10 }
  - { offsetInCU: 0xF95C, offset: 0xF95C, size: 0x8, addend: 0x0, symName: __ZNSt3__19__advanceB7v160006INS_15__list_iteratorIPN3LOB5OrderEPvEEEEvRT_NS_15iterator_traitsIS7_E15difference_typeENS_26bidirectional_iterator_tagE, symObjAddr: 0x9040, symBinAddr: 0x10000B800, symSize: 0x80 }
  - { offsetInCU: 0xF9A5, offset: 0xF9A5, size: 0x8, addend: 0x0, symName: __ZNSt3__112construct_atB7v160006IPN3LOB5OrderEJRS3_EPS3_EEPT_S7_DpOT0_, symObjAddr: 0x91C0, symBinAddr: 0x10000B980, symSize: 0x30 }
  - { offsetInCU: 0xFA15, offset: 0xFA15, size: 0x8, addend: 0x0, symName: __ZNSt3__14nextB7v160006INS_16reverse_iteratorINS_14__map_iteratorINS_15__tree_iteratorINS_12__value_typeIyPN3LOB5LimitEEEPNS_11__tree_nodeIS8_PvEElEEEEEEEENS_9enable_ifIXsr25__is_cpp17_input_iteratorIT_EE5valueESH_E4typeESH_NS_15iterator_traitsISH_E15difference_typeE, symObjAddr: 0x95A0, symBinAddr: 0x10000BD60, symSize: 0x60 }
  - { offsetInCU: 0xFA58, offset: 0xFA58, size: 0x8, addend: 0x0, symName: __ZNSt3__19__advanceB7v160006INS_16reverse_iteratorINS_14__map_iteratorINS_15__tree_iteratorINS_12__value_typeIyPN3LOB5LimitEEEPNS_11__tree_nodeIS8_PvEElEEEEEEEEvRT_NS_15iterator_traitsISG_E15difference_typeENS_26bidirectional_iterator_tagE, symObjAddr: 0x9720, symBinAddr: 0x10000BEE0, symSize: 0x80 }
  - { offsetInCU: 0xFAA1, offset: 0xFAA1, size: 0x8, addend: 0x0, symName: __ZNSt3__116__tree_prev_iterB7v160006IPNS_16__tree_node_baseIPvEEPNS_15__tree_end_nodeIS4_EEEET_T0_, symObjAddr: 0x9860, symBinAddr: 0x10000C020, symSize: 0x80 }
  - { offsetInCU: 0xFAED, offset: 0xFAED, size: 0x8, addend: 0x0, symName: __ZNSt3__110__tree_maxB7v160006IPNS_16__tree_node_baseIPvEEEET_S5_, symObjAddr: 0x98E0, symBinAddr: 0x10000C0A0, symSize: 0x30 }
  - { offsetInCU: 0xFB22, offset: 0xFB22, size: 0x8, addend: 0x0, symName: __ZNSt3__14prevB7v160006INS_14__map_iteratorINS_15__tree_iteratorINS_12__value_typeIyPN3LOB5LimitEEEPNS_11__tree_nodeIS7_PvEElEEEEEENS_9enable_ifIXsr25__is_cpp17_input_iteratorIT_EE5valueESF_E4typeESF_NS_15iterator_traitsISF_E15difference_typeE, symObjAddr: 0x9970, symBinAddr: 0x10000C130, symSize: 0x50 }
  - { offsetInCU: 0xFB65, offset: 0xFB65, size: 0x8, addend: 0x0, symName: __ZNSt3__19__advanceB7v160006INS_14__map_iteratorINS_15__tree_iteratorINS_12__value_typeIyPN3LOB5LimitEEEPNS_11__tree_nodeIS7_PvEElEEEEEEvRT_NS_15iterator_traitsISE_E15difference_typeENS_26bidirectional_iterator_tagE, symObjAddr: 0x9A10, symBinAddr: 0x10000C1D0, symSize: 0x80 }
  - { offsetInCU: 0xFBAE, offset: 0xFBAE, size: 0x8, addend: 0x0, symName: __ZNSt3__113__tree_removeB7v160006IPNS_16__tree_node_baseIPvEEEEvT_S5_, symObjAddr: 0x9E50, symBinAddr: 0x10000C610, symSize: 0x5E0 }
  - { offsetInCU: 0xFC2C, offset: 0xFC2C, size: 0x8, addend: 0x0, symName: __ZNSt3__111__tree_nextB7v160006IPNS_16__tree_node_baseIPvEEEET_S5_, symObjAddr: 0xA430, symBinAddr: 0x10000CBF0, symSize: 0x80 }
  - { offsetInCU: 0xFC61, offset: 0xFC61, size: 0x8, addend: 0x0, symName: __ZNSt3__118__debug_db_erase_cB7v160006INS_12__hash_tableINS_17__hash_value_typeIiNS_15__list_iteratorIPN3LOB5OrderEPvEEEENS_22__unordered_map_hasherIiS9_NS_4hashIiEENS_8equal_toIiEELb1EEENS_21__unordered_map_equalIiS9_SE_SC_Lb1EEENS_9allocatorIS9_EEEEEEvPT_, symObjAddr: 0xA670, symBinAddr: 0x10000CE30, symSize: 0x10 }
  - { offsetInCU: 0xFC92, offset: 0xFC92, size: 0x8, addend: 0x0, symName: __ZNSt3__118__debug_db_erase_cB7v160006INS_10__list_impIPN3LOB5OrderENS_9allocatorIS4_EEEEEEvPT_, symObjAddr: 0xA780, symBinAddr: 0x10000CF40, symSize: 0x10 }
  - { offsetInCU: 0xFCC3, offset: 0xFCC3, size: 0x8, addend: 0x0, symName: __ZNSt3__116forward_as_tupleB7v160006IJiEEENS_5tupleIJDpOT_EEES4_, symObjAddr: 0xAD40, symBinAddr: 0x10000D500, symSize: 0x30 }
  - { offsetInCU: 0xFCFC, offset: 0xFCFC, size: 0x8, addend: 0x0, symName: __ZNSt3__112construct_atB7v160006INS_4pairIKiNS_15__list_iteratorIPN3LOB5OrderEPvEEEEJRKNS_21piecewise_construct_tENS_5tupleIJOiEEENSD_IJEEEEPS9_EEPT_SJ_DpOT0_, symObjAddr: 0xAFA0, symBinAddr: 0x10000D760, symSize: 0x50 }
  - { offsetInCU: 0xFD92, offset: 0xFD92, size: 0x8, addend: 0x0, symName: __ZNSt3__13getB7v160006ILm0EJOiEEERNS_13tuple_elementIXT_ENS_5tupleIJDpT0_EEEE4typeERS6_, symObjAddr: 0xB0A0, symBinAddr: 0x10000D860, symSize: 0x20 }
  - { offsetInCU: 0xFDD5, offset: 0xFDD5, size: 0x8, addend: 0x0, symName: __ZNSt3__119__debug_db_insert_iB7v160006INS_15__list_iteratorIPN3LOB5OrderEPvEEEEvPT_, symObjAddr: 0xB130, symBinAddr: 0x10000D8F0, symSize: 0x10 }
  - { offsetInCU: 0xFE4E, offset: 0xFE4E, size: 0x8, addend: 0x0, symName: __ZNSt3__1eqB7v160006ERKNS_15__hash_iteratorIPNS_11__hash_nodeINS_17__hash_value_typeIiNS_15__list_iteratorIPN3LOB5OrderEPvEEEES7_EEEESE_, symObjAddr: 0xB440, symBinAddr: 0x10000DC00, symSize: 0x30 }
  - { offsetInCU: 0xFE8B, offset: 0xFE8B, size: 0x8, addend: 0x0, symName: __ZNSt3__14nextB7v160006INS_14__map_iteratorINS_15__tree_iteratorINS_12__value_typeIyPN3LOB5LimitEEEPNS_11__tree_nodeIS7_PvEElEEEEEENS_9enable_ifIXsr25__is_cpp17_input_iteratorIT_EE5valueESF_E4typeESF_NS_15iterator_traitsISF_E15difference_typeE, symObjAddr: 0xB800, symBinAddr: 0x10000DFC0, symSize: 0x4C }
  - { offsetInCU: 0x1017D, offset: 0x1017D, size: 0x8, addend: 0x0, symName: __ZSt28__throw_bad_array_new_lengthB7v160006v, symObjAddr: 0x35C0, symBinAddr: 0x100005D80, symSize: 0x40 }
  - { offsetInCU: 0x1064F, offset: 0x1064F, size: 0x8, addend: 0x0, symName: __ZN3LOB8canMatchILNS_4SideE1EEEbyy, symObjAddr: 0x4B40, symBinAddr: 0x100007300, symSize: 0x40 }
  - { offsetInCU: 0x10693, offset: 0x10693, size: 0x8, addend: 0x0, symName: __ZN3LOB7setBestILNS_4SideE0EEEvPPNS_5LimitES3_, symObjAddr: 0x4C40, symBinAddr: 0x100007400, symSize: 0x60 }
  - { offsetInCU: 0x106D3, offset: 0x106D3, size: 0x8, addend: 0x0, symName: __ZN3LOB8canMatchILNS_4SideE0EEEbyy, symObjAddr: 0x91F0, symBinAddr: 0x10000B9B0, symSize: 0x40 }
  - { offsetInCU: 0x10717, offset: 0x10717, size: 0x8, addend: 0x0, symName: __ZN3LOB7setBestILNS_4SideE1EEEvPPNS_5LimitES3_, symObjAddr: 0x9260, symBinAddr: 0x10000BA20, symSize: 0x60 }
  - { offsetInCU: 0x10757, offset: 0x10757, size: 0x8, addend: 0x0, symName: __ZN3LOB8findBestILNS_4SideE0EEEvPPNS_5LimitERNSt3__13mapIyS3_NS5_4lessIyEENS5_9allocatorINS5_4pairIKyS3_EEEEEE, symObjAddr: 0x9340, symBinAddr: 0x10000BB00, symSize: 0x80 }
  - { offsetInCU: 0x107A5, offset: 0x107A5, size: 0x8, addend: 0x0, symName: __ZN3LOB8findBestILNS_4SideE1EEEvPPNS_5LimitERNSt3__13mapIyS3_NS5_4lessIyEENS5_9allocatorINS5_4pairIKyS3_EEEEEE, symObjAddr: 0xB790, symBinAddr: 0x10000DF50, symSize: 0x70 }
  - { offsetInCU: 0x13CB3, offset: 0x13CB3, size: 0x8, addend: 0x0, symName: __ZN3LOB14LimitOrderBook5clearEv, symObjAddr: 0x0, symBinAddr: 0x1000027C0, symSize: 0x40 }
  - { offsetInCU: 0x13CDB, offset: 0x13CDB, size: 0x8, addend: 0x0, symName: __ZN3LOB9LimitTreeILNS_4SideE0EE5clearEv, symObjAddr: 0x40, symBinAddr: 0x100002800, symSize: 0xA0 }
  - { offsetInCU: 0x13D1D, offset: 0x13D1D, size: 0x8, addend: 0x0, symName: __ZN3LOB9LimitTreeILNS_4SideE1EE5clearEv, symObjAddr: 0xE0, symBinAddr: 0x1000028A0, symSize: 0xA0 }
  - { offsetInCU: 0x13D5F, offset: 0x13D5F, size: 0x8, addend: 0x0, symName: __ZNSt3__113unordered_mapIyN3LOB5OrderENS_4hashIyEENS_8equal_toIyEENS_9allocatorINS_4pairIKyS2_EEEEE5clearB7v160006Ev, symObjAddr: 0x180, symBinAddr: 0x100002940, symSize: 0x20 }
  - { offsetInCU: 0x13D85, offset: 0x13D85, size: 0x8, addend: 0x0, symName: __ZN3LOB14LimitOrderBook5limitENS_4SideEyyy, symObjAddr: 0x1A0, symBinAddr: 0x100002960, symSize: 0x70 }
  - { offsetInCU: 0x13DE5, offset: 0x13DE5, size: 0x8, addend: 0x0, symName: __ZN3LOB14LimitOrderBook8limitBuyEyyy, symObjAddr: 0x210, symBinAddr: 0x1000029D0, symSize: 0x110 }
  - { offsetInCU: 0x13E5E, offset: 0x13E5E, size: 0x8, addend: 0x0, symName: __ZN3LOB14LimitOrderBook9limitSellEyyy, symObjAddr: 0x320, symBinAddr: 0x100002AE0, symSize: 0x120 }
  - { offsetInCU: 0x13EE1, offset: 0x13EE1, size: 0x8, addend: 0x0, symName: __ZNSt3__113unordered_mapIyN3LOB5OrderENS_4hashIyEENS_8equal_toIyEENS_9allocatorINS_4pairIKyS2_EEEEE7emplaceB7v160006IJRyS2_EEENS8_INS_19__hash_map_iteratorINS_15__hash_iteratorIPNS_11__hash_nodeINS_17__hash_value_typeIyS2_EEPvEEEEEEbEEDpOT_, symObjAddr: 0x440, symBinAddr: 0x100002C00, symSize: 0x50 }
  - { offsetInCU: 0x13F35, offset: 0x13F35, size: 0x8, addend: 0x0, symName: __ZN3LOB5OrderC1EyyyNS_4SideE, symObjAddr: 0x490, symBinAddr: 0x100002C50, symSize: 0x40 }
  - { offsetInCU: 0x13F9C, offset: 0x13F9C, size: 0x8, addend: 0x0, symName: '__ZN3LOB9LimitTreeILNS_4SideE1EE6marketIZNS_14LimitOrderBook8limitBuyEyyyE3$_0EEvPNS_5OrderET_', symObjAddr: 0x4D0, symBinAddr: 0x100002C90, symSize: 0x160 }
  - { offsetInCU: 0x14003, offset: 0x14003, size: 0x8, addend: 0x0, symName: __ZNSt3__113unordered_mapIyN3LOB5OrderENS_4hashIyEENS_8equal_toIyEENS_9allocatorINS_4pairIKyS2_EEEEE2atERS9_, symObjAddr: 0x630, symBinAddr: 0x100002DF0, symSize: 0x70 }
  - { offsetInCU: 0x14049, offset: 0x14049, size: 0x8, addend: 0x0, symName: __ZNSt3__113unordered_mapIyN3LOB5OrderENS_4hashIyEENS_8equal_toIyEENS_9allocatorINS_4pairIKyS2_EEEEE5eraseB7v160006ERS9_, symObjAddr: 0x6A0, symBinAddr: 0x100002E60, symSize: 0x30 }
  - { offsetInCU: 0x1407E, offset: 0x1407E, size: 0x8, addend: 0x0, symName: __ZN3LOB9LimitTreeILNS_4SideE0EE5limitEPNS_5OrderE, symObjAddr: 0x6D0, symBinAddr: 0x100002E90, symSize: 0x2A0 }
  - { offsetInCU: 0x140B2, offset: 0x140B2, size: 0x8, addend: 0x0, symName: '__ZN3LOB9LimitTreeILNS_4SideE0EE6marketIZNS_14LimitOrderBook9limitSellEyyyE3$_1EEvPNS_5OrderET_', symObjAddr: 0x970, symBinAddr: 0x100003130, symSize: 0x160 }
  - { offsetInCU: 0x14119, offset: 0x14119, size: 0x8, addend: 0x0, symName: __ZN3LOB9LimitTreeILNS_4SideE1EE5limitEPNS_5OrderE, symObjAddr: 0xAD0, symBinAddr: 0x100003290, symSize: 0x2A0 }
  - { offsetInCU: 0x1414D, offset: 0x1414D, size: 0x8, addend: 0x0, symName: __ZN3LOB14LimitOrderBook6marketENS_4SideEyy, symObjAddr: 0xD70, symBinAddr: 0x100003530, symSize: 0x60 }
  - { offsetInCU: 0x1419F, offset: 0x1419F, size: 0x8, addend: 0x0, symName: __ZN3LOB14LimitOrderBook9marketBuyEyy, symObjAddr: 0xDD0, symBinAddr: 0x100003590, symSize: 0x60 }
  - { offsetInCU: 0x14218, offset: 0x14218, size: 0x8, addend: 0x0, symName: __ZN3LOB14LimitOrderBook10marketSellEyy, symObjAddr: 0xE30, symBinAddr: 0x1000035F0, symSize: 0x80 }
  - { offsetInCU: 0x14291, offset: 0x14291, size: 0x8, addend: 0x0, symName: '__ZN3LOB9LimitTreeILNS_4SideE1EE6marketIZNS_14LimitOrderBook9marketBuyEyyE3$_2EEvPNS_5OrderET_', symObjAddr: 0xEB0, symBinAddr: 0x100003670, symSize: 0x160 }
  - { offsetInCU: 0x142F8, offset: 0x142F8, size: 0x8, addend: 0x0, symName: '__ZN3LOB9LimitTreeILNS_4SideE0EE6marketIZNS_14LimitOrderBook10marketSellEyyE3$_3EEvPNS_5OrderET_', symObjAddr: 0x1010, symBinAddr: 0x1000037D0, symSize: 0x160 }
  - { offsetInCU: 0x1435F, offset: 0x1435F, size: 0x8, addend: 0x0, symName: __ZN3LOB14LimitOrderBook6reduceEyy, symObjAddr: 0x1170, symBinAddr: 0x100003930, symSize: 0x130 }
  - { offsetInCU: 0x143B1, offset: 0x143B1, size: 0x8, addend: 0x0, symName: __ZN3LOB9LimitTreeILNS_4SideE0EE6cancelEPNS_5OrderE, symObjAddr: 0x12A0, symBinAddr: 0x100003A60, symSize: 0x180 }
  - { offsetInCU: 0x1442B, offset: 0x1442B, size: 0x8, addend: 0x0, symName: __ZN3LOB9LimitTreeILNS_4SideE1EE6cancelEPNS_5OrderE, symObjAddr: 0x1420, symBinAddr: 0x100003BE0, symSize: 0x180 }
  - { offsetInCU: 0x144A5, offset: 0x144A5, size: 0x8, addend: 0x0, symName: __ZN3LOB14LimitOrderBook6cancelEy, symObjAddr: 0x15A0, symBinAddr: 0x100003D60, symSize: 0x80 }
  - { offsetInCU: 0x144E9, offset: 0x144E9, size: 0x8, addend: 0x0, symName: __ZN3LOB5OrderC2EyyyNS_4SideE, symObjAddr: 0x1620, symBinAddr: 0x100003DE0, symSize: 0x50 }
  - { offsetInCU: 0x1454B, offset: 0x1454B, size: 0x8, addend: 0x0, symName: __ZNSt3__13mapIyPN3LOB5LimitENS_4lessIyEENS_9allocatorINS_4pairIKyS3_EEEEE5beginB7v160006Ev, symObjAddr: 0x1670, symBinAddr: 0x100003E30, symSize: 0x30 }
  - { offsetInCU: 0x14571, offset: 0x14571, size: 0x8, addend: 0x0, symName: __ZNSt3__13mapIyPN3LOB5LimitENS_4lessIyEENS_9allocatorINS_4pairIKyS3_EEEEE3endB7v160006Ev, symObjAddr: 0x16D0, symBinAddr: 0x100003E90, symSize: 0x30 }
  - { offsetInCU: 0x14597, offset: 0x14597, size: 0x8, addend: 0x0, symName: __ZNKSt3__114__map_iteratorINS_15__tree_iteratorINS_12__value_typeIyPN3LOB5LimitEEEPNS_11__tree_nodeIS6_PvEElEEEptB7v160006Ev, symObjAddr: 0x1700, symBinAddr: 0x100003EC0, symSize: 0x30 }
  - { offsetInCU: 0x145BD, offset: 0x145BD, size: 0x8, addend: 0x0, symName: __ZNSt3__14listIPN3LOB5OrderENS_9allocatorIS3_EEE5clearB7v160006Ev, symObjAddr: 0x1730, symBinAddr: 0x100003EF0, symSize: 0x20 }
  - { offsetInCU: 0x145E3, offset: 0x145E3, size: 0x8, addend: 0x0, symName: __ZNSt3__114__map_iteratorINS_15__tree_iteratorINS_12__value_typeIyPN3LOB5LimitEEEPNS_11__tree_nodeIS6_PvEElEEEppB7v160006Ev, symObjAddr: 0x1750, symBinAddr: 0x100003F10, symSize: 0x30 }
  - { offsetInCU: 0x14609, offset: 0x14609, size: 0x8, addend: 0x0, symName: __ZNSt3__13mapIyPN3LOB5LimitENS_4lessIyEENS_9allocatorINS_4pairIKyS3_EEEEE5clearB7v160006Ev, symObjAddr: 0x1780, symBinAddr: 0x100003F40, symSize: 0x20 }
  - { offsetInCU: 0x1462F, offset: 0x1462F, size: 0x8, addend: 0x0, symName: __ZNSt3__16__treeINS_12__value_typeIyPN3LOB5LimitEEENS_19__map_value_compareIyS5_NS_4lessIyEELb1EEENS_9allocatorIS5_EEE5beginB7v160006Ev, symObjAddr: 0x17A0, symBinAddr: 0x100003F60, symSize: 0x30 }
  - { offsetInCU: 0x14655, offset: 0x14655, size: 0x8, addend: 0x0, symName: __ZNSt3__114__map_iteratorINS_15__tree_iteratorINS_12__value_typeIyPN3LOB5LimitEEEPNS_11__tree_nodeIS6_PvEElEEEC1B7v160006ESB_, symObjAddr: 0x17D0, symBinAddr: 0x100003F90, symSize: 0x30 }
  - { offsetInCU: 0x1468E, offset: 0x1468E, size: 0x8, addend: 0x0, symName: __ZNSt3__16__treeINS_12__value_typeIyPN3LOB5LimitEEENS_19__map_value_compareIyS5_NS_4lessIyEELb1EEENS_9allocatorIS5_EEE12__begin_nodeB7v160006Ev, symObjAddr: 0x1800, symBinAddr: 0x100003FC0, symSize: 0x10 }
  - { offsetInCU: 0x146B4, offset: 0x146B4, size: 0x8, addend: 0x0, symName: __ZNSt3__115__tree_iteratorINS_12__value_typeIyPN3LOB5LimitEEEPNS_11__tree_nodeIS5_PvEElEC1B7v160006EPNS_15__tree_end_nodeIPNS_16__tree_node_baseIS7_EEEE, symObjAddr: 0x1810, symBinAddr: 0x100003FD0, symSize: 0x30 }
  - { offsetInCU: 0x146ED, offset: 0x146ED, size: 0x8, addend: 0x0, symName: __ZNSt3__115__tree_iteratorINS_12__value_typeIyPN3LOB5LimitEEEPNS_11__tree_nodeIS5_PvEElEC2B7v160006EPNS_15__tree_end_nodeIPNS_16__tree_node_baseIS7_EEEE, symObjAddr: 0x1840, symBinAddr: 0x100004000, symSize: 0x20 }
  - { offsetInCU: 0x14726, offset: 0x14726, size: 0x8, addend: 0x0, symName: __ZNSt3__114__map_iteratorINS_15__tree_iteratorINS_12__value_typeIyPN3LOB5LimitEEEPNS_11__tree_nodeIS6_PvEElEEEC2B7v160006ESB_, symObjAddr: 0x1860, symBinAddr: 0x100004020, symSize: 0x20 }
  - { offsetInCU: 0x1475F, offset: 0x1475F, size: 0x8, addend: 0x0, symName: __ZNSt3__16__treeINS_12__value_typeIyPN3LOB5LimitEEENS_19__map_value_compareIyS5_NS_4lessIyEELb1EEENS_9allocatorIS5_EEE3endB7v160006Ev, symObjAddr: 0x18E0, symBinAddr: 0x1000040A0, symSize: 0x30 }
  - { offsetInCU: 0x14785, offset: 0x14785, size: 0x8, addend: 0x0, symName: __ZNSt3__16__treeINS_12__value_typeIyPN3LOB5LimitEEENS_19__map_value_compareIyS5_NS_4lessIyEELb1EEENS_9allocatorIS5_EEE10__end_nodeB7v160006Ev, symObjAddr: 0x1910, symBinAddr: 0x1000040D0, symSize: 0x30 }
  - { offsetInCU: 0x147AB, offset: 0x147AB, size: 0x8, addend: 0x0, symName: __ZNSt3__114pointer_traitsIPNS_15__tree_end_nodeIPNS_16__tree_node_baseIPvEEEEE10pointer_toB7v160006ERS6_, symObjAddr: 0x1940, symBinAddr: 0x100004100, symSize: 0x10 }
  - { offsetInCU: 0x147CE, offset: 0x147CE, size: 0x8, addend: 0x0, symName: __ZNSt3__117__compressed_pairINS_15__tree_end_nodeIPNS_16__tree_node_baseIPvEEEENS_9allocatorINS_11__tree_nodeINS_12__value_typeIyPN3LOB5LimitEEES3_EEEEE5firstB7v160006Ev, symObjAddr: 0x1950, symBinAddr: 0x100004110, symSize: 0x20 }
  - { offsetInCU: 0x147F4, offset: 0x147F4, size: 0x8, addend: 0x0, symName: __ZNSt3__122__compressed_pair_elemINS_15__tree_end_nodeIPNS_16__tree_node_baseIPvEEEELi0ELb0EE5__getB7v160006Ev, symObjAddr: 0x1970, symBinAddr: 0x100004130, symSize: 0x10 }
  - { offsetInCU: 0x1481A, offset: 0x1481A, size: 0x8, addend: 0x0, symName: __ZNSt3__114pointer_traitsIPNS_4pairIKyPN3LOB5LimitEEEE10pointer_toB7v160006ERS6_, symObjAddr: 0x1980, symBinAddr: 0x100004140, symSize: 0x10 }
  - { offsetInCU: 0x1483D, offset: 0x1483D, size: 0x8, addend: 0x0, symName: __ZNKSt3__115__tree_iteratorINS_12__value_typeIyPN3LOB5LimitEEEPNS_11__tree_nodeIS5_PvEElEptB7v160006Ev, symObjAddr: 0x1990, symBinAddr: 0x100004150, symSize: 0x30 }
  - { offsetInCU: 0x14863, offset: 0x14863, size: 0x8, addend: 0x0, symName: __ZNSt3__112__value_typeIyPN3LOB5LimitEE11__get_valueB7v160006Ev, symObjAddr: 0x19C0, symBinAddr: 0x100004180, symSize: 0x20 }
  - { offsetInCU: 0x14889, offset: 0x14889, size: 0x8, addend: 0x0, symName: __ZNSt3__114pointer_traitsIPNS_12__value_typeIyPN3LOB5LimitEEEE10pointer_toB7v160006ERS5_, symObjAddr: 0x19E0, symBinAddr: 0x1000041A0, symSize: 0x10 }
  - { offsetInCU: 0x148AC, offset: 0x148AC, size: 0x8, addend: 0x0, symName: __ZNKSt3__115__tree_iteratorINS_12__value_typeIyPN3LOB5LimitEEEPNS_11__tree_nodeIS5_PvEElE8__get_npB7v160006Ev, symObjAddr: 0x19F0, symBinAddr: 0x1000041B0, symSize: 0x20 }
  - { offsetInCU: 0x148D2, offset: 0x148D2, size: 0x8, addend: 0x0, symName: __ZNSt3__110__list_impIPN3LOB5OrderENS_9allocatorIS3_EEE5clearEv, symObjAddr: 0x1A40, symBinAddr: 0x100004200, symSize: 0xF0 }
  - { offsetInCU: 0x14944, offset: 0x14944, size: 0x8, addend: 0x0, symName: __ZNKSt3__110__list_impIPN3LOB5OrderENS_9allocatorIS3_EEE5emptyB7v160006Ev, symObjAddr: 0x1B30, symBinAddr: 0x1000042F0, symSize: 0x30 }
  - { offsetInCU: 0x1496A, offset: 0x1496A, size: 0x8, addend: 0x0, symName: __ZNSt3__110__list_impIPN3LOB5OrderENS_9allocatorIS3_EEE12__node_allocB7v160006Ev, symObjAddr: 0x1B60, symBinAddr: 0x100004320, symSize: 0x20 }
  - { offsetInCU: 0x14990, offset: 0x14990, size: 0x8, addend: 0x0, symName: __ZNKSt3__110__list_impIPN3LOB5OrderENS_9allocatorIS3_EEE13__end_as_linkB7v160006Ev, symObjAddr: 0x1B80, symBinAddr: 0x100004340, symSize: 0x50 }
  - { offsetInCU: 0x149B6, offset: 0x149B6, size: 0x8, addend: 0x0, symName: __ZNSt3__110__list_impIPN3LOB5OrderENS_9allocatorIS3_EEE14__unlink_nodesEPNS_16__list_node_baseIS3_PvEESA_, symObjAddr: 0x1BD0, symBinAddr: 0x100004390, symSize: 0x40 }
  - { offsetInCU: 0x149EB, offset: 0x149EB, size: 0x8, addend: 0x0, symName: __ZNSt3__110__list_impIPN3LOB5OrderENS_9allocatorIS3_EEE4__szB7v160006Ev, symObjAddr: 0x1C10, symBinAddr: 0x1000043D0, symSize: 0x20 }
  - { offsetInCU: 0x14A11, offset: 0x14A11, size: 0x8, addend: 0x0, symName: __ZNSt3__116__list_node_baseIPN3LOB5OrderEPvE9__as_nodeB7v160006Ev, symObjAddr: 0x1C30, symBinAddr: 0x1000043F0, symSize: 0x20 }
  - { offsetInCU: 0x14A37, offset: 0x14A37, size: 0x8, addend: 0x0, symName: __ZNSt3__116allocator_traitsINS_9allocatorINS_11__list_nodeIPN3LOB5OrderEPvEEEEE7destroyB7v160006IS5_vvEEvRS8_PT_, symObjAddr: 0x1C60, symBinAddr: 0x100004420, symSize: 0x20 }
  - { offsetInCU: 0x14A72, offset: 0x14A72, size: 0x8, addend: 0x0, symName: __ZNSt3__116allocator_traitsINS_9allocatorINS_11__list_nodeIPN3LOB5OrderEPvEEEEE10deallocateB7v160006ERS8_PS7_m, symObjAddr: 0x1C80, symBinAddr: 0x100004440, symSize: 0x30 }
  - { offsetInCU: 0x14AB4, offset: 0x14AB4, size: 0x8, addend: 0x0, symName: __ZNKSt3__110__list_impIPN3LOB5OrderENS_9allocatorIS3_EEE4__szB7v160006Ev, symObjAddr: 0x1CC0, symBinAddr: 0x100004480, symSize: 0x20 }
  - { offsetInCU: 0x14ADA, offset: 0x14ADA, size: 0x8, addend: 0x0, symName: __ZNKSt3__117__compressed_pairImNS_9allocatorINS_11__list_nodeIPN3LOB5OrderEPvEEEEE5firstB7v160006Ev, symObjAddr: 0x1CE0, symBinAddr: 0x1000044A0, symSize: 0x20 }
  - { offsetInCU: 0x14B00, offset: 0x14B00, size: 0x8, addend: 0x0, symName: __ZNKSt3__122__compressed_pair_elemImLi0ELb0EE5__getB7v160006Ev, symObjAddr: 0x1D00, symBinAddr: 0x1000044C0, symSize: 0x10 }
  - { offsetInCU: 0x14B26, offset: 0x14B26, size: 0x8, addend: 0x0, symName: __ZNSt3__117__compressed_pairImNS_9allocatorINS_11__list_nodeIPN3LOB5OrderEPvEEEEE6secondB7v160006Ev, symObjAddr: 0x1D10, symBinAddr: 0x1000044D0, symSize: 0x20 }
  - { offsetInCU: 0x14B4C, offset: 0x14B4C, size: 0x8, addend: 0x0, symName: __ZNSt3__122__compressed_pair_elemINS_9allocatorINS_11__list_nodeIPN3LOB5OrderEPvEEEELi1ELb1EE5__getB7v160006Ev, symObjAddr: 0x1D30, symBinAddr: 0x1000044F0, symSize: 0x10 }
  - { offsetInCU: 0x14B72, offset: 0x14B72, size: 0x8, addend: 0x0, symName: __ZNSt3__126__list_node_pointer_traitsIPN3LOB5OrderEPvE26__unsafe_link_pointer_castB7v160006EPNS_16__list_node_baseIS3_S4_EE, symObjAddr: 0x1D40, symBinAddr: 0x100004500, symSize: 0x10 }
  - { offsetInCU: 0x14B96, offset: 0x14B96, size: 0x8, addend: 0x0, symName: __ZNSt3__116__list_node_baseIPN3LOB5OrderEPvE6__selfB7v160006Ev, symObjAddr: 0x1D50, symBinAddr: 0x100004510, symSize: 0x20 }
  - { offsetInCU: 0x14BC1, offset: 0x14BC1, size: 0x8, addend: 0x0, symName: __ZNSt3__114pointer_traitsIPNS_16__list_node_baseIPN3LOB5OrderEPvEEE10pointer_toB7v160006ERS6_, symObjAddr: 0x1D70, symBinAddr: 0x100004530, symSize: 0x10 }
  - { offsetInCU: 0x14BE4, offset: 0x14BE4, size: 0x8, addend: 0x0, symName: __ZNSt3__117__compressed_pairImNS_9allocatorINS_11__list_nodeIPN3LOB5OrderEPvEEEEE5firstB7v160006Ev, symObjAddr: 0x1D80, symBinAddr: 0x100004540, symSize: 0x20 }
  - { offsetInCU: 0x14C0A, offset: 0x14C0A, size: 0x8, addend: 0x0, symName: __ZNSt3__122__compressed_pair_elemImLi0ELb0EE5__getB7v160006Ev, symObjAddr: 0x1DA0, symBinAddr: 0x100004560, symSize: 0x10 }
  - { offsetInCU: 0x14C30, offset: 0x14C30, size: 0x8, addend: 0x0, symName: __ZNSt3__19allocatorINS_11__list_nodeIPN3LOB5OrderEPvEEE10deallocateB7v160006EPS6_m, symObjAddr: 0x1DE0, symBinAddr: 0x1000045A0, symSize: 0x50 }
  - { offsetInCU: 0x14C72, offset: 0x14C72, size: 0x8, addend: 0x0, symName: __ZNSt3__115__tree_iteratorINS_12__value_typeIyPN3LOB5LimitEEEPNS_11__tree_nodeIS5_PvEElEppB7v160006Ev, symObjAddr: 0x1F50, symBinAddr: 0x100004710, symSize: 0x30 }
  - { offsetInCU: 0x14C98, offset: 0x14C98, size: 0x8, addend: 0x0, symName: __ZNKSt3__116__tree_node_baseIPvE15__parent_unsafeB7v160006Ev, symObjAddr: 0x2070, symBinAddr: 0x100004830, symSize: 0x20 }
  - { offsetInCU: 0x14CBE, offset: 0x14CBE, size: 0x8, addend: 0x0, symName: __ZNSt3__16__treeINS_12__value_typeIyPN3LOB5LimitEEENS_19__map_value_compareIyS5_NS_4lessIyEELb1EEENS_9allocatorIS5_EEE5clearEv, symObjAddr: 0x2090, symBinAddr: 0x100004850, symSize: 0x70 }
  - { offsetInCU: 0x14CE6, offset: 0x14CE6, size: 0x8, addend: 0x0, symName: __ZNSt3__16__treeINS_12__value_typeIyPN3LOB5LimitEEENS_19__map_value_compareIyS5_NS_4lessIyEELb1EEENS_9allocatorIS5_EEE7destroyEPNS_11__tree_nodeIS5_PvEE, symObjAddr: 0x2100, symBinAddr: 0x1000048C0, symSize: 0xB0 }
  - { offsetInCU: 0x14D33, offset: 0x14D33, size: 0x8, addend: 0x0, symName: __ZNKSt3__16__treeINS_12__value_typeIyPN3LOB5LimitEEENS_19__map_value_compareIyS5_NS_4lessIyEELb1EEENS_9allocatorIS5_EEE6__rootB7v160006Ev, symObjAddr: 0x21B0, symBinAddr: 0x100004970, symSize: 0x20 }
  - { offsetInCU: 0x14D59, offset: 0x14D59, size: 0x8, addend: 0x0, symName: __ZNSt3__16__treeINS_12__value_typeIyPN3LOB5LimitEEENS_19__map_value_compareIyS5_NS_4lessIyEELb1EEENS_9allocatorIS5_EEE4sizeB7v160006Ev, symObjAddr: 0x21D0, symBinAddr: 0x100004990, symSize: 0x20 }
  - { offsetInCU: 0x14D7F, offset: 0x14D7F, size: 0x8, addend: 0x0, symName: __ZNSt3__16__treeINS_12__value_typeIyPN3LOB5LimitEEENS_19__map_value_compareIyS5_NS_4lessIyEELb1EEENS_9allocatorIS5_EEE12__node_allocB7v160006Ev, symObjAddr: 0x21F0, symBinAddr: 0x1000049B0, symSize: 0x20 }
  - { offsetInCU: 0x14DA5, offset: 0x14DA5, size: 0x8, addend: 0x0, symName: __ZNSt3__116allocator_traitsINS_9allocatorINS_11__tree_nodeINS_12__value_typeIyPN3LOB5LimitEEEPvEEEEE7destroyB7v160006INS_4pairIKyS6_EEvvEEvRSA_PT_, symObjAddr: 0x2210, symBinAddr: 0x1000049D0, symSize: 0x20 }
  - { offsetInCU: 0x14DE0, offset: 0x14DE0, size: 0x8, addend: 0x0, symName: __ZNSt3__122__tree_key_value_typesINS_12__value_typeIyPN3LOB5LimitEEEE9__get_ptrB7v160006ERS5_, symObjAddr: 0x2230, symBinAddr: 0x1000049F0, symSize: 0x20 }
  - { offsetInCU: 0x14E04, offset: 0x14E04, size: 0x8, addend: 0x0, symName: __ZNSt3__116allocator_traitsINS_9allocatorINS_11__tree_nodeINS_12__value_typeIyPN3LOB5LimitEEEPvEEEEE10deallocateB7v160006ERSA_PS9_m, symObjAddr: 0x2250, symBinAddr: 0x100004A10, symSize: 0x30 }
  - { offsetInCU: 0x14E46, offset: 0x14E46, size: 0x8, addend: 0x0, symName: __ZNSt3__117__compressed_pairINS_15__tree_end_nodeIPNS_16__tree_node_baseIPvEEEENS_9allocatorINS_11__tree_nodeINS_12__value_typeIyPN3LOB5LimitEEES3_EEEEE6secondB7v160006Ev, symObjAddr: 0x2280, symBinAddr: 0x100004A40, symSize: 0x20 }
  - { offsetInCU: 0x14E6C, offset: 0x14E6C, size: 0x8, addend: 0x0, symName: __ZNSt3__122__compressed_pair_elemINS_9allocatorINS_11__tree_nodeINS_12__value_typeIyPN3LOB5LimitEEEPvEEEELi1ELb1EE5__getB7v160006Ev, symObjAddr: 0x22A0, symBinAddr: 0x100004A60, symSize: 0x10 }
  - { offsetInCU: 0x14E92, offset: 0x14E92, size: 0x8, addend: 0x0, symName: __ZNSt3__19allocatorINS_11__tree_nodeINS_12__value_typeIyPN3LOB5LimitEEEPvEEE10deallocateB7v160006EPS8_m, symObjAddr: 0x22E0, symBinAddr: 0x100004AA0, symSize: 0x50 }
  - { offsetInCU: 0x14ED4, offset: 0x14ED4, size: 0x8, addend: 0x0, symName: __ZNKSt3__16__treeINS_12__value_typeIyPN3LOB5LimitEEENS_19__map_value_compareIyS5_NS_4lessIyEELb1EEENS_9allocatorIS5_EEE10__end_nodeB7v160006Ev, symObjAddr: 0x2330, symBinAddr: 0x100004AF0, symSize: 0x30 }
  - { offsetInCU: 0x14EFA, offset: 0x14EFA, size: 0x8, addend: 0x0, symName: __ZNKSt3__117__compressed_pairINS_15__tree_end_nodeIPNS_16__tree_node_baseIPvEEEENS_9allocatorINS_11__tree_nodeINS_12__value_typeIyPN3LOB5LimitEEES3_EEEEE5firstB7v160006Ev, symObjAddr: 0x2360, symBinAddr: 0x100004B20, symSize: 0x20 }
  - { offsetInCU: 0x14F20, offset: 0x14F20, size: 0x8, addend: 0x0, symName: __ZNKSt3__122__compressed_pair_elemINS_15__tree_end_nodeIPNS_16__tree_node_baseIPvEEEELi0ELb0EE5__getB7v160006Ev, symObjAddr: 0x2380, symBinAddr: 0x100004B40, symSize: 0x10 }
  - { offsetInCU: 0x14F46, offset: 0x14F46, size: 0x8, addend: 0x0, symName: __ZNSt3__117__compressed_pairImNS_19__map_value_compareIyNS_12__value_typeIyPN3LOB5LimitEEENS_4lessIyEELb1EEEE5firstB7v160006Ev, symObjAddr: 0x2390, symBinAddr: 0x100004B50, symSize: 0x20 }
  - { offsetInCU: 0x14F6C, offset: 0x14F6C, size: 0x8, addend: 0x0, symName: __ZNSt3__112__hash_tableINS_17__hash_value_typeIyN3LOB5OrderEEENS_22__unordered_map_hasherIyS4_NS_4hashIyEENS_8equal_toIyEELb1EEENS_21__unordered_map_equalIyS4_S9_S7_Lb1EEENS_9allocatorIS4_EEE5clearEv, symObjAddr: 0x23B0, symBinAddr: 0x100004B70, symSize: 0xD0 }
  - { offsetInCU: 0x14FC0, offset: 0x14FC0, size: 0x8, addend: 0x0, symName: __ZNSt3__112__hash_tableINS_17__hash_value_typeIyN3LOB5OrderEEENS_22__unordered_map_hasherIyS4_NS_4hashIyEENS_8equal_toIyEELb1EEENS_21__unordered_map_equalIyS4_S9_S7_Lb1EEENS_9allocatorIS4_EEE4sizeB7v160006Ev, symObjAddr: 0x2480, symBinAddr: 0x100004C40, symSize: 0x20 }
  - { offsetInCU: 0x14FE6, offset: 0x14FE6, size: 0x8, addend: 0x0, symName: __ZNSt3__112__hash_tableINS_17__hash_value_typeIyN3LOB5OrderEEENS_22__unordered_map_hasherIyS4_NS_4hashIyEENS_8equal_toIyEELb1EEENS_21__unordered_map_equalIyS4_S9_S7_Lb1EEENS_9allocatorIS4_EEE17__deallocate_nodeEPNS_16__hash_node_baseIPNS_11__hash_nodeIS4_PvEEEE, symObjAddr: 0x24A0, symBinAddr: 0x100004C60, symSize: 0xA0 }
  - { offsetInCU: 0x15051, offset: 0x15051, size: 0x8, addend: 0x0, symName: __ZNSt3__117__compressed_pairINS_16__hash_node_baseIPNS_11__hash_nodeINS_17__hash_value_typeIyN3LOB5OrderEEEPvEEEENS_9allocatorIS8_EEE5firstB7v160006Ev, symObjAddr: 0x2540, symBinAddr: 0x100004D00, symSize: 0x20 }
  - { offsetInCU: 0x15077, offset: 0x15077, size: 0x8, addend: 0x0, symName: __ZNKSt3__112__hash_tableINS_17__hash_value_typeIyN3LOB5OrderEEENS_22__unordered_map_hasherIyS4_NS_4hashIyEENS_8equal_toIyEELb1EEENS_21__unordered_map_equalIyS4_S9_S7_Lb1EEENS_9allocatorIS4_EEE12bucket_countB7v160006Ev, symObjAddr: 0x2560, symBinAddr: 0x100004D20, symSize: 0x30 }
  - { offsetInCU: 0x1509D, offset: 0x1509D, size: 0x8, addend: 0x0, symName: __ZNKSt3__110unique_ptrIA_PNS_16__hash_node_baseIPNS_11__hash_nodeINS_17__hash_value_typeIyN3LOB5OrderEEEPvEEEENS_25__bucket_list_deallocatorINS_9allocatorISB_EEEEEixB7v160006Em, symObjAddr: 0x2590, symBinAddr: 0x100004D50, symSize: 0x30 }
  - { offsetInCU: 0x150D2, offset: 0x150D2, size: 0x8, addend: 0x0, symName: __ZNSt3__117__compressed_pairImNS_22__unordered_map_hasherIyNS_17__hash_value_typeIyN3LOB5OrderEEENS_4hashIyEENS_8equal_toIyEELb1EEEE5firstB7v160006Ev, symObjAddr: 0x25C0, symBinAddr: 0x100004D80, symSize: 0x20 }
  - { offsetInCU: 0x150F8, offset: 0x150F8, size: 0x8, addend: 0x0, symName: __ZNSt3__112__hash_tableINS_17__hash_value_typeIyN3LOB5OrderEEENS_22__unordered_map_hasherIyS4_NS_4hashIyEENS_8equal_toIyEELb1EEENS_21__unordered_map_equalIyS4_S9_S7_Lb1EEENS_9allocatorIS4_EEE12__node_allocB7v160006Ev, symObjAddr: 0x25E0, symBinAddr: 0x100004DA0, symSize: 0x20 }
  - { offsetInCU: 0x1511E, offset: 0x1511E, size: 0x8, addend: 0x0, symName: __ZNSt3__116__hash_node_baseIPNS_11__hash_nodeINS_17__hash_value_typeIyN3LOB5OrderEEEPvEEE8__upcastB7v160006Ev, symObjAddr: 0x2600, symBinAddr: 0x100004DC0, symSize: 0x20 }
  - { offsetInCU: 0x15144, offset: 0x15144, size: 0x8, addend: 0x0, symName: __ZNSt3__116allocator_traitsINS_9allocatorINS_11__hash_nodeINS_17__hash_value_typeIyN3LOB5OrderEEEPvEEEEE7destroyB7v160006INS_4pairIKyS5_EEvvEEvRS9_PT_, symObjAddr: 0x2620, symBinAddr: 0x100004DE0, symSize: 0x20 }
  - { offsetInCU: 0x1517F, offset: 0x1517F, size: 0x8, addend: 0x0, symName: __ZNSt3__122__hash_key_value_typesINS_17__hash_value_typeIyN3LOB5OrderEEEE9__get_ptrB7v160006ERS4_, symObjAddr: 0x2640, symBinAddr: 0x100004E00, symSize: 0x20 }
  - { offsetInCU: 0x151A2, offset: 0x151A2, size: 0x8, addend: 0x0, symName: __ZNSt3__116allocator_traitsINS_9allocatorINS_11__hash_nodeINS_17__hash_value_typeIyN3LOB5OrderEEEPvEEEEE10deallocateB7v160006ERS9_PS8_m, symObjAddr: 0x2660, symBinAddr: 0x100004E20, symSize: 0x30 }
  - { offsetInCU: 0x151E4, offset: 0x151E4, size: 0x8, addend: 0x0, symName: __ZNSt3__117__compressed_pairINS_16__hash_node_baseIPNS_11__hash_nodeINS_17__hash_value_typeIyN3LOB5OrderEEEPvEEEENS_9allocatorIS8_EEE6secondB7v160006Ev, symObjAddr: 0x2690, symBinAddr: 0x100004E50, symSize: 0x20 }
  - { offsetInCU: 0x1520A, offset: 0x1520A, size: 0x8, addend: 0x0, symName: __ZNSt3__122__compressed_pair_elemINS_9allocatorINS_11__hash_nodeINS_17__hash_value_typeIyN3LOB5OrderEEEPvEEEELi1ELb1EE5__getB7v160006Ev, symObjAddr: 0x26B0, symBinAddr: 0x100004E70, symSize: 0x10 }
  - { offsetInCU: 0x15230, offset: 0x15230, size: 0x8, addend: 0x0, symName: __ZNSt3__114pointer_traitsIPNS_16__hash_node_baseIPNS_11__hash_nodeINS_17__hash_value_typeIyN3LOB5OrderEEEPvEEEEE10pointer_toB7v160006ERSA_, symObjAddr: 0x26C0, symBinAddr: 0x100004E80, symSize: 0x10 }
  - { offsetInCU: 0x15253, offset: 0x15253, size: 0x8, addend: 0x0, symName: __ZNSt3__117__hash_value_typeIyN3LOB5OrderEE11__get_valueB7v160006Ev, symObjAddr: 0x2700, symBinAddr: 0x100004EC0, symSize: 0x20 }
  - { offsetInCU: 0x15279, offset: 0x15279, size: 0x8, addend: 0x0, symName: __ZNSt3__19allocatorINS_11__hash_nodeINS_17__hash_value_typeIyN3LOB5OrderEEEPvEEE10deallocateB7v160006EPS7_m, symObjAddr: 0x2750, symBinAddr: 0x100004F10, symSize: 0x40 }
  - { offsetInCU: 0x152BB, offset: 0x152BB, size: 0x8, addend: 0x0, symName: __ZNSt3__122__compressed_pair_elemINS_16__hash_node_baseIPNS_11__hash_nodeINS_17__hash_value_typeIyN3LOB5OrderEEEPvEEEELi0ELb0EE5__getB7v160006Ev, symObjAddr: 0x2790, symBinAddr: 0x100004F50, symSize: 0x10 }
  - { offsetInCU: 0x152E1, offset: 0x152E1, size: 0x8, addend: 0x0, symName: __ZNKSt3__110unique_ptrIA_PNS_16__hash_node_baseIPNS_11__hash_nodeINS_17__hash_value_typeIyN3LOB5OrderEEEPvEEEENS_25__bucket_list_deallocatorINS_9allocatorISB_EEEEE11get_deleterB7v160006Ev, symObjAddr: 0x27A0, symBinAddr: 0x100004F60, symSize: 0x20 }
  - { offsetInCU: 0x15307, offset: 0x15307, size: 0x8, addend: 0x0, symName: __ZNKSt3__125__bucket_list_deallocatorINS_9allocatorIPNS_16__hash_node_baseIPNS_11__hash_nodeINS_17__hash_value_typeIyN3LOB5OrderEEEPvEEEEEEE4sizeB7v160006Ev, symObjAddr: 0x27C0, symBinAddr: 0x100004F80, symSize: 0x20 }
  - { offsetInCU: 0x1532D, offset: 0x1532D, size: 0x8, addend: 0x0, symName: __ZNKSt3__117__compressed_pairIPPNS_16__hash_node_baseIPNS_11__hash_nodeINS_17__hash_value_typeIyN3LOB5OrderEEEPvEEEENS_25__bucket_list_deallocatorINS_9allocatorISB_EEEEE6secondB7v160006Ev, symObjAddr: 0x27E0, symBinAddr: 0x100004FA0, symSize: 0x20 }
  - { offsetInCU: 0x15353, offset: 0x15353, size: 0x8, addend: 0x0, symName: __ZNKSt3__122__compressed_pair_elemINS_25__bucket_list_deallocatorINS_9allocatorIPNS_16__hash_node_baseIPNS_11__hash_nodeINS_17__hash_value_typeIyN3LOB5OrderEEEPvEEEEEEEELi1ELb0EE5__getB7v160006Ev, symObjAddr: 0x2800, symBinAddr: 0x100004FC0, symSize: 0x10 }
  - { offsetInCU: 0x15379, offset: 0x15379, size: 0x8, addend: 0x0, symName: __ZNKSt3__117__compressed_pairImNS_9allocatorIPNS_16__hash_node_baseIPNS_11__hash_nodeINS_17__hash_value_typeIyN3LOB5OrderEEEPvEEEEEEE5firstB7v160006Ev, symObjAddr: 0x2810, symBinAddr: 0x100004FD0, symSize: 0x20 }
  - { offsetInCU: 0x1539F, offset: 0x1539F, size: 0x8, addend: 0x0, symName: __ZNKSt3__117__compressed_pairIPPNS_16__hash_node_baseIPNS_11__hash_nodeINS_17__hash_value_typeIyN3LOB5OrderEEEPvEEEENS_25__bucket_list_deallocatorINS_9allocatorISB_EEEEE5firstB7v160006Ev, symObjAddr: 0x2830, symBinAddr: 0x100004FF0, symSize: 0x20 }
  - { offsetInCU: 0x153C5, offset: 0x153C5, size: 0x8, addend: 0x0, symName: __ZNKSt3__122__compressed_pair_elemIPPNS_16__hash_node_baseIPNS_11__hash_nodeINS_17__hash_value_typeIyN3LOB5OrderEEEPvEEEELi0ELb0EE5__getB7v160006Ev, symObjAddr: 0x2850, symBinAddr: 0x100005010, symSize: 0x10 }
  - { offsetInCU: 0x153EB, offset: 0x153EB, size: 0x8, addend: 0x0, symName: __ZNSt3__112__hash_tableINS_17__hash_value_typeIyN3LOB5OrderEEENS_22__unordered_map_hasherIyS4_NS_4hashIyEENS_8equal_toIyEELb1EEENS_21__unordered_map_equalIyS4_S9_S7_Lb1EEENS_9allocatorIS4_EEE16__emplace_uniqueB7v160006IRyS3_EENS_9enable_ifIXsr21__can_extract_map_keyIT_yNS_4pairIKyS3_EEEE5valueENSK_INS_15__hash_iteratorIPNS_11__hash_nodeIS4_PvEEEEbEEE4typeEOSJ_OT0_, symObjAddr: 0x2860, symBinAddr: 0x100005020, symSize: 0x40 }
  - { offsetInCU: 0x15441, offset: 0x15441, size: 0x8, addend: 0x0, symName: __ZNSt3__14pairINS_19__hash_map_iteratorINS_15__hash_iteratorIPNS_11__hash_nodeINS_17__hash_value_typeIyN3LOB5OrderEEEPvEEEEEEbEC1B7v160006ISB_bLS8_0EEEONS0_IT_T0_EE, symObjAddr: 0x28A0, symBinAddr: 0x100005060, symSize: 0x30 }
  - { offsetInCU: 0x15492, offset: 0x15492, size: 0x8, addend: 0x0, symName: __ZNSt3__112__hash_tableINS_17__hash_value_typeIyN3LOB5OrderEEENS_22__unordered_map_hasherIyS4_NS_4hashIyEENS_8equal_toIyEELb1EEENS_21__unordered_map_equalIyS4_S9_S7_Lb1EEENS_9allocatorIS4_EEE25__emplace_unique_key_argsIyJRyS3_EEENS_4pairINS_15__hash_iteratorIPNS_11__hash_nodeIS4_PvEEEEbEERKT_DpOT0_, symObjAddr: 0x28D0, symBinAddr: 0x100005090, symSize: 0x600 }
  - { offsetInCU: 0x15586, offset: 0x15586, size: 0x8, addend: 0x0, symName: __ZNSt3__112__hash_tableINS_17__hash_value_typeIyN3LOB5OrderEEENS_22__unordered_map_hasherIyS4_NS_4hashIyEENS_8equal_toIyEELb1EEENS_21__unordered_map_equalIyS4_S9_S7_Lb1EEENS_9allocatorIS4_EEE13hash_functionB7v160006Ev, symObjAddr: 0x2ED0, symBinAddr: 0x100005690, symSize: 0x20 }
  - { offsetInCU: 0x155AC, offset: 0x155AC, size: 0x8, addend: 0x0, symName: __ZNKSt3__122__unordered_map_hasherIyNS_17__hash_value_typeIyN3LOB5OrderEEENS_4hashIyEENS_8equal_toIyEELb1EEclB7v160006ERKy, symObjAddr: 0x2EF0, symBinAddr: 0x1000056B0, symSize: 0x30 }
  - { offsetInCU: 0x155E1, offset: 0x155E1, size: 0x8, addend: 0x0, symName: __ZNKSt3__116__hash_node_baseIPNS_11__hash_nodeINS_17__hash_value_typeIyN3LOB5OrderEEEPvEEE6__hashB7v160006Ev, symObjAddr: 0x2FA0, symBinAddr: 0x100005760, symSize: 0x20 }
  - { offsetInCU: 0x15607, offset: 0x15607, size: 0x8, addend: 0x0, symName: __ZNSt3__112__hash_tableINS_17__hash_value_typeIyN3LOB5OrderEEENS_22__unordered_map_hasherIyS4_NS_4hashIyEENS_8equal_toIyEELb1EEENS_21__unordered_map_equalIyS4_S9_S7_Lb1EEENS_9allocatorIS4_EEE6key_eqB7v160006Ev, symObjAddr: 0x2FC0, symBinAddr: 0x100005780, symSize: 0x20 }
  - { offsetInCU: 0x1562D, offset: 0x1562D, size: 0x8, addend: 0x0, symName: __ZNKSt3__121__unordered_map_equalIyNS_17__hash_value_typeIyN3LOB5OrderEEENS_8equal_toIyEENS_4hashIyEELb1EEclB7v160006ERKS4_RKy, symObjAddr: 0x2FE0, symBinAddr: 0x1000057A0, symSize: 0x40 }
  - { offsetInCU: 0x15671, offset: 0x15671, size: 0x8, addend: 0x0, symName: __ZNSt3__112__hash_tableINS_17__hash_value_typeIyN3LOB5OrderEEENS_22__unordered_map_hasherIyS4_NS_4hashIyEENS_8equal_toIyEELb1EEENS_21__unordered_map_equalIyS4_S9_S7_Lb1EEENS_9allocatorIS4_EEE21__construct_node_hashIRyJS3_EEENS_10unique_ptrINS_11__hash_nodeIS4_PvEENS_22__hash_node_destructorINSD_ISL_EEEEEEmOT_DpOT0_, symObjAddr: 0x3020, symBinAddr: 0x1000057E0, symSize: 0x140 }
  - { offsetInCU: 0x156F9, offset: 0x156F9, size: 0x8, addend: 0x0, symName: __ZNSt3__112__hash_tableINS_17__hash_value_typeIyN3LOB5OrderEEENS_22__unordered_map_hasherIyS4_NS_4hashIyEENS_8equal_toIyEELb1EEENS_21__unordered_map_equalIyS4_S9_S7_Lb1EEENS_9allocatorIS4_EEE15max_load_factorB7v160006Ev, symObjAddr: 0x3160, symBinAddr: 0x100005920, symSize: 0x20 }
  - { offsetInCU: 0x1571F, offset: 0x1571F, size: 0x8, addend: 0x0, symName: __ZNSt3__112__hash_tableINS_17__hash_value_typeIyN3LOB5OrderEEENS_22__unordered_map_hasherIyS4_NS_4hashIyEENS_8equal_toIyEELb1EEENS_21__unordered_map_equalIyS4_S9_S7_Lb1EEENS_9allocatorIS4_EEE15__rehash_uniqueB7v160006Em, symObjAddr: 0x3180, symBinAddr: 0x100005940, symSize: 0x30 }
  - { offsetInCU: 0x15753, offset: 0x15753, size: 0x8, addend: 0x0, symName: __Z4ceilB7v160006f, symObjAddr: 0x3220, symBinAddr: 0x1000059E0, symSize: 0x20 }
  - { offsetInCU: 0x15782, offset: 0x15782, size: 0x8, addend: 0x0, symName: __ZNSt3__116__hash_node_baseIPNS_11__hash_nodeINS_17__hash_value_typeIyN3LOB5OrderEEEPvEEE5__ptrB7v160006Ev, symObjAddr: 0x3240, symBinAddr: 0x100005A00, symSize: 0x20 }
  - { offsetInCU: 0x157A8, offset: 0x157A8, size: 0x8, addend: 0x0, symName: __ZNKSt3__110unique_ptrINS_11__hash_nodeINS_17__hash_value_typeIyN3LOB5OrderEEEPvEENS_22__hash_node_destructorINS_9allocatorIS7_EEEEEptB7v160006Ev, symObjAddr: 0x3260, symBinAddr: 0x100005A20, symSize: 0x20 }
  - { offsetInCU: 0x157CE, offset: 0x157CE, size: 0x8, addend: 0x0, symName: __ZNKSt3__110unique_ptrINS_11__hash_nodeINS_17__hash_value_typeIyN3LOB5OrderEEEPvEENS_22__hash_node_destructorINS_9allocatorIS7_EEEEE3getB7v160006Ev, symObjAddr: 0x3280, symBinAddr: 0x100005A40, symSize: 0x20 }
  - { offsetInCU: 0x157F4, offset: 0x157F4, size: 0x8, addend: 0x0, symName: __ZNSt3__110unique_ptrINS_11__hash_nodeINS_17__hash_value_typeIyN3LOB5OrderEEEPvEENS_22__hash_node_destructorINS_9allocatorIS7_EEEEE7releaseB7v160006Ev, symObjAddr: 0x32A0, symBinAddr: 0x100005A60, symSize: 0x40 }
  - { offsetInCU: 0x15829, offset: 0x15829, size: 0x8, addend: 0x0, symName: __ZNSt3__110unique_ptrINS_11__hash_nodeINS_17__hash_value_typeIyN3LOB5OrderEEEPvEENS_22__hash_node_destructorINS_9allocatorIS7_EEEEED1B7v160006Ev, symObjAddr: 0x32E0, symBinAddr: 0x100005AA0, symSize: 0x20 }
  - { offsetInCU: 0x15853, offset: 0x15853, size: 0x8, addend: 0x0, symName: __ZNSt3__115__hash_iteratorIPNS_11__hash_nodeINS_17__hash_value_typeIyN3LOB5OrderEEEPvEEEC1B7v160006EPNS_16__hash_node_baseIS8_EEPKv, symObjAddr: 0x3300, symBinAddr: 0x100005AC0, symSize: 0x30 }
  - { offsetInCU: 0x158A5, offset: 0x158A5, size: 0x8, addend: 0x0, symName: __ZNSt3__14pairINS_15__hash_iteratorIPNS_11__hash_nodeINS_17__hash_value_typeIyN3LOB5OrderEEEPvEEEEbEC1B7v160006ISA_RbLS7_0EEEOT_OT0_, symObjAddr: 0x3330, symBinAddr: 0x100005AF0, symSize: 0x30 }
  - { offsetInCU: 0x15903, offset: 0x15903, size: 0x8, addend: 0x0, symName: __ZNSt3__117__compressed_pairImNS_22__unordered_map_hasherIyNS_17__hash_value_typeIyN3LOB5OrderEEENS_4hashIyEENS_8equal_toIyEELb1EEEE6secondB7v160006Ev, symObjAddr: 0x3360, symBinAddr: 0x100005B20, symSize: 0x20 }
  - { offsetInCU: 0x15929, offset: 0x15929, size: 0x8, addend: 0x0, symName: __ZNSt3__122__compressed_pair_elemINS_22__unordered_map_hasherIyNS_17__hash_value_typeIyN3LOB5OrderEEENS_4hashIyEENS_8equal_toIyEELb1EEELi1ELb1EE5__getB7v160006Ev, symObjAddr: 0x3380, symBinAddr: 0x100005B40, symSize: 0x10 }
  - { offsetInCU: 0x1594F, offset: 0x1594F, size: 0x8, addend: 0x0, symName: __ZNKSt3__113__scalar_hashIyLm1EEclB7v160006Ey, symObjAddr: 0x3390, symBinAddr: 0x100005B50, symSize: 0x20 }
  - { offsetInCU: 0x159B5, offset: 0x159B5, size: 0x8, addend: 0x0, symName: __ZNSt3__117__compressed_pairIfNS_21__unordered_map_equalIyNS_17__hash_value_typeIyN3LOB5OrderEEENS_8equal_toIyEENS_4hashIyEELb1EEEE6secondB7v160006Ev, symObjAddr: 0x33B0, symBinAddr: 0x100005B70, symSize: 0x20 }
  - { offsetInCU: 0x159DB, offset: 0x159DB, size: 0x8, addend: 0x0, symName: __ZNSt3__122__compressed_pair_elemINS_21__unordered_map_equalIyNS_17__hash_value_typeIyN3LOB5OrderEEENS_8equal_toIyEENS_4hashIyEELb1EEELi1ELb1EE5__getB7v160006Ev, symObjAddr: 0x33D0, symBinAddr: 0x100005B90, symSize: 0x10 }
  - { offsetInCU: 0x15A01, offset: 0x15A01, size: 0x8, addend: 0x0, symName: __ZNKSt3__18equal_toIyEclB7v160006ERKyS3_, symObjAddr: 0x33E0, symBinAddr: 0x100005BA0, symSize: 0x30 }
  - { offsetInCU: 0x15A45, offset: 0x15A45, size: 0x8, addend: 0x0, symName: __ZNKSt3__117__hash_value_typeIyN3LOB5OrderEE11__get_valueB7v160006Ev, symObjAddr: 0x3410, symBinAddr: 0x100005BD0, symSize: 0x20 }
  - { offsetInCU: 0x15A6B, offset: 0x15A6B, size: 0x8, addend: 0x0, symName: __ZNSt3__116allocator_traitsINS_9allocatorINS_11__hash_nodeINS_17__hash_value_typeIyN3LOB5OrderEEEPvEEEEE8allocateB7v160006ERS9_m, symObjAddr: 0x3460, symBinAddr: 0x100005C20, symSize: 0x30 }
  - { offsetInCU: 0x15A9E, offset: 0x15A9E, size: 0x8, addend: 0x0, symName: __ZNSt3__122__hash_node_destructorINS_9allocatorINS_11__hash_nodeINS_17__hash_value_typeIyN3LOB5OrderEEEPvEEEEEC1B7v160006ERS9_b, symObjAddr: 0x3490, symBinAddr: 0x100005C50, symSize: 0x40 }
  - { offsetInCU: 0x15AEB, offset: 0x15AEB, size: 0x8, addend: 0x0, symName: __ZNSt3__110unique_ptrINS_11__hash_nodeINS_17__hash_value_typeIyN3LOB5OrderEEEPvEENS_22__hash_node_destructorINS_9allocatorIS7_EEEEEC1B7v160006ILb1EvEEPS7_NS_16__dependent_typeINS_27__unique_ptr_deleter_sfinaeISB_EEXT_EE20__good_rval_ref_typeE, symObjAddr: 0x34D0, symBinAddr: 0x100005C90, symSize: 0x30 }
  - { offsetInCU: 0x15B3C, offset: 0x15B3C, size: 0x8, addend: 0x0, symName: __ZNSt3__116allocator_traitsINS_9allocatorINS_11__hash_nodeINS_17__hash_value_typeIyN3LOB5OrderEEEPvEEEEE9constructB7v160006INS_4pairIKyS5_EEJRyS5_EvvEEvRS9_PT_DpOT0_, symObjAddr: 0x3500, symBinAddr: 0x100005CC0, symSize: 0x30 }
  - { offsetInCU: 0x15BA5, offset: 0x15BA5, size: 0x8, addend: 0x0, symName: __ZNSt3__110unique_ptrINS_11__hash_nodeINS_17__hash_value_typeIyN3LOB5OrderEEEPvEENS_22__hash_node_destructorINS_9allocatorIS7_EEEEE11get_deleterB7v160006Ev, symObjAddr: 0x3530, symBinAddr: 0x100005CF0, symSize: 0x20 }
  - { offsetInCU: 0x15BCB, offset: 0x15BCB, size: 0x8, addend: 0x0, symName: __ZNSt3__19allocatorINS_11__hash_nodeINS_17__hash_value_typeIyN3LOB5OrderEEEPvEEE8allocateB7v160006Em, symObjAddr: 0x3550, symBinAddr: 0x100005D10, symSize: 0x50 }
  - { offsetInCU: 0x15C09, offset: 0x15C09, size: 0x8, addend: 0x0, symName: __ZNSt3__116allocator_traitsINS_9allocatorINS_11__hash_nodeINS_17__hash_value_typeIyN3LOB5OrderEEEPvEEEEE8max_sizeB7v160006IS9_vvEEmRKS9_, symObjAddr: 0x35A0, symBinAddr: 0x100005D60, symSize: 0x20 }
  - { offsetInCU: 0x15C35, offset: 0x15C35, size: 0x8, addend: 0x0, symName: __ZNSt3__114numeric_limitsImE3maxB7v160006Ev, symObjAddr: 0x3660, symBinAddr: 0x100005E20, symSize: 0x10 }
  - { offsetInCU: 0x15C49, offset: 0x15C49, size: 0x8, addend: 0x0, symName: __ZNSt3__123__libcpp_numeric_limitsImLb1EE3maxB7v160006Ev, symObjAddr: 0x3670, symBinAddr: 0x100005E30, symSize: 0x10 }
  - { offsetInCU: 0x15C5D, offset: 0x15C5D, size: 0x8, addend: 0x0, symName: __ZNSt3__122__hash_node_destructorINS_9allocatorINS_11__hash_nodeINS_17__hash_value_typeIyN3LOB5OrderEEEPvEEEEEC2B7v160006ERS9_b, symObjAddr: 0x36D0, symBinAddr: 0x100005E90, symSize: 0x30 }
  - { offsetInCU: 0x15CA5, offset: 0x15CA5, size: 0x8, addend: 0x0, symName: __ZNSt3__110unique_ptrINS_11__hash_nodeINS_17__hash_value_typeIyN3LOB5OrderEEEPvEENS_22__hash_node_destructorINS_9allocatorIS7_EEEEEC2B7v160006ILb1EvEEPS7_NS_16__dependent_typeINS_27__unique_ptr_deleter_sfinaeISB_EEXT_EE20__good_rval_ref_typeE, symObjAddr: 0x3700, symBinAddr: 0x100005EC0, symSize: 0x40 }
  - { offsetInCU: 0x15CF6, offset: 0x15CF6, size: 0x8, addend: 0x0, symName: __ZNSt3__117__compressed_pairIPNS_11__hash_nodeINS_17__hash_value_typeIyN3LOB5OrderEEEPvEENS_22__hash_node_destructorINS_9allocatorIS7_EEEEEC1B7v160006IRS8_SC_EEOT_OT0_, symObjAddr: 0x3740, symBinAddr: 0x100005F00, symSize: 0x30 }
  - { offsetInCU: 0x15D4E, offset: 0x15D4E, size: 0x8, addend: 0x0, symName: __ZNSt3__117__compressed_pairIPNS_11__hash_nodeINS_17__hash_value_typeIyN3LOB5OrderEEEPvEENS_22__hash_node_destructorINS_9allocatorIS7_EEEEEC2B7v160006IRS8_SC_EEOT_OT0_, symObjAddr: 0x3770, symBinAddr: 0x100005F30, symSize: 0x40 }
  - { offsetInCU: 0x15DA6, offset: 0x15DA6, size: 0x8, addend: 0x0, symName: __ZNSt3__122__compressed_pair_elemIPNS_11__hash_nodeINS_17__hash_value_typeIyN3LOB5OrderEEEPvEELi0ELb0EEC2B7v160006IRS8_vEEOT_, symObjAddr: 0x37B0, symBinAddr: 0x100005F70, symSize: 0x20 }
  - { offsetInCU: 0x15DE8, offset: 0x15DE8, size: 0x8, addend: 0x0, symName: __ZNSt3__122__compressed_pair_elemINS_22__hash_node_destructorINS_9allocatorINS_11__hash_nodeINS_17__hash_value_typeIyN3LOB5OrderEEEPvEEEEEELi1ELb0EEC2B7v160006ISB_vEEOT_, symObjAddr: 0x37D0, symBinAddr: 0x100005F90, symSize: 0x30 }
  - { offsetInCU: 0x15E2A, offset: 0x15E2A, size: 0x8, addend: 0x0, symName: __ZNSt3__14pairIKyN3LOB5OrderEEC1B7v160006IRyS3_LPv0EEEOT_OT0_, symObjAddr: 0x3840, symBinAddr: 0x100006000, symSize: 0x30 }
  - { offsetInCU: 0x15E88, offset: 0x15E88, size: 0x8, addend: 0x0, symName: __ZNSt3__14pairIKyN3LOB5OrderEEC2B7v160006IRyS3_LPv0EEEOT_OT0_, symObjAddr: 0x3870, symBinAddr: 0x100006030, symSize: 0x40 }
  - { offsetInCU: 0x15EE6, offset: 0x15EE6, size: 0x8, addend: 0x0, symName: __ZNSt3__117__compressed_pairIPNS_11__hash_nodeINS_17__hash_value_typeIyN3LOB5OrderEEEPvEENS_22__hash_node_destructorINS_9allocatorIS7_EEEEE6secondB7v160006Ev, symObjAddr: 0x38B0, symBinAddr: 0x100006070, symSize: 0x20 }
  - { offsetInCU: 0x15F0C, offset: 0x15F0C, size: 0x8, addend: 0x0, symName: __ZNSt3__122__compressed_pair_elemINS_22__hash_node_destructorINS_9allocatorINS_11__hash_nodeINS_17__hash_value_typeIyN3LOB5OrderEEEPvEEEEEELi1ELb0EE5__getB7v160006Ev, symObjAddr: 0x38D0, symBinAddr: 0x100006090, symSize: 0x10 }
  - { offsetInCU: 0x15F32, offset: 0x15F32, size: 0x8, addend: 0x0, symName: __ZNSt3__117__compressed_pairIfNS_21__unordered_map_equalIyNS_17__hash_value_typeIyN3LOB5OrderEEENS_8equal_toIyEENS_4hashIyEELb1EEEE5firstB7v160006Ev, symObjAddr: 0x38E0, symBinAddr: 0x1000060A0, symSize: 0x20 }
  - { offsetInCU: 0x15F58, offset: 0x15F58, size: 0x8, addend: 0x0, symName: __ZNSt3__122__compressed_pair_elemIfLi0ELb0EE5__getB7v160006Ev, symObjAddr: 0x3900, symBinAddr: 0x1000060C0, symSize: 0x10 }
  - { offsetInCU: 0x15F7E, offset: 0x15F7E, size: 0x8, addend: 0x0, symName: __ZNSt3__112__hash_tableINS_17__hash_value_typeIyN3LOB5OrderEEENS_22__unordered_map_hasherIyS4_NS_4hashIyEENS_8equal_toIyEELb1EEENS_21__unordered_map_equalIyS4_S9_S7_Lb1EEENS_9allocatorIS4_EEE8__rehashILb1EEEvm, symObjAddr: 0x3910, symBinAddr: 0x1000060D0, symSize: 0x230 }
  - { offsetInCU: 0x15FCE, offset: 0x15FCE, size: 0x8, addend: 0x0, symName: __ZNSt3__112__hash_tableINS_17__hash_value_typeIyN3LOB5OrderEEENS_22__unordered_map_hasherIyS4_NS_4hashIyEENS_8equal_toIyEELb1EEENS_21__unordered_map_equalIyS4_S9_S7_Lb1EEENS_9allocatorIS4_EEE11__do_rehashILb1EEEvm, symObjAddr: 0x3B40, symBinAddr: 0x100006300, symSize: 0x260 }
  - { offsetInCU: 0x160B1, offset: 0x160B1, size: 0x8, addend: 0x0, symName: __ZNSt3__110unique_ptrIA_PNS_16__hash_node_baseIPNS_11__hash_nodeINS_17__hash_value_typeIyN3LOB5OrderEEEPvEEEENS_25__bucket_list_deallocatorINS_9allocatorISB_EEEEE11get_deleterB7v160006Ev, symObjAddr: 0x3E10, symBinAddr: 0x1000065D0, symSize: 0x20 }
  - { offsetInCU: 0x160D7, offset: 0x160D7, size: 0x8, addend: 0x0, symName: __ZNSt3__125__bucket_list_deallocatorINS_9allocatorIPNS_16__hash_node_baseIPNS_11__hash_nodeINS_17__hash_value_typeIyN3LOB5OrderEEEPvEEEEEEE7__allocB7v160006Ev, symObjAddr: 0x3E30, symBinAddr: 0x1000065F0, symSize: 0x20 }
  - { offsetInCU: 0x160FD, offset: 0x160FD, size: 0x8, addend: 0x0, symName: __ZNSt3__110unique_ptrIA_PNS_16__hash_node_baseIPNS_11__hash_nodeINS_17__hash_value_typeIyN3LOB5OrderEEEPvEEEENS_25__bucket_list_deallocatorINS_9allocatorISB_EEEEE5resetB7v160006IPSB_EENS_9enable_ifIXsr28_CheckArrayPointerConversionIT_EE5valueEvE4typeESL_, symObjAddr: 0x3E50, symBinAddr: 0x100006610, symSize: 0x70 }
  - { offsetInCU: 0x1614A, offset: 0x1614A, size: 0x8, addend: 0x0, symName: __ZNSt3__116allocator_traitsINS_9allocatorIPNS_16__hash_node_baseIPNS_11__hash_nodeINS_17__hash_value_typeIyN3LOB5OrderEEEPvEEEEEEE8allocateB7v160006ERSD_m, symObjAddr: 0x3EC0, symBinAddr: 0x100006680, symSize: 0x30 }
  - { offsetInCU: 0x1617D, offset: 0x1617D, size: 0x8, addend: 0x0, symName: __ZNSt3__125__bucket_list_deallocatorINS_9allocatorIPNS_16__hash_node_baseIPNS_11__hash_nodeINS_17__hash_value_typeIyN3LOB5OrderEEEPvEEEEEEE4sizeB7v160006Ev, symObjAddr: 0x3EF0, symBinAddr: 0x1000066B0, symSize: 0x20 }
  - { offsetInCU: 0x161A3, offset: 0x161A3, size: 0x8, addend: 0x0, symName: __ZNSt3__117__compressed_pairIPPNS_16__hash_node_baseIPNS_11__hash_nodeINS_17__hash_value_typeIyN3LOB5OrderEEEPvEEEENS_25__bucket_list_deallocatorINS_9allocatorISB_EEEEE6secondB7v160006Ev, symObjAddr: 0x3F10, symBinAddr: 0x1000066D0, symSize: 0x20 }
  - { offsetInCU: 0x161C9, offset: 0x161C9, size: 0x8, addend: 0x0, symName: __ZNSt3__122__compressed_pair_elemINS_25__bucket_list_deallocatorINS_9allocatorIPNS_16__hash_node_baseIPNS_11__hash_nodeINS_17__hash_value_typeIyN3LOB5OrderEEEPvEEEEEEEELi1ELb0EE5__getB7v160006Ev, symObjAddr: 0x3F30, symBinAddr: 0x1000066F0, symSize: 0x10 }
  - { offsetInCU: 0x161EF, offset: 0x161EF, size: 0x8, addend: 0x0, symName: __ZNSt3__117__compressed_pairImNS_9allocatorIPNS_16__hash_node_baseIPNS_11__hash_nodeINS_17__hash_value_typeIyN3LOB5OrderEEEPvEEEEEEE6secondB7v160006Ev, symObjAddr: 0x3F40, symBinAddr: 0x100006700, symSize: 0x20 }
  - { offsetInCU: 0x16215, offset: 0x16215, size: 0x8, addend: 0x0, symName: __ZNSt3__122__compressed_pair_elemINS_9allocatorIPNS_16__hash_node_baseIPNS_11__hash_nodeINS_17__hash_value_typeIyN3LOB5OrderEEEPvEEEEEELi1ELb1EE5__getB7v160006Ev, symObjAddr: 0x3F60, symBinAddr: 0x100006720, symSize: 0x10 }
  - { offsetInCU: 0x1623B, offset: 0x1623B, size: 0x8, addend: 0x0, symName: __ZNSt3__117__compressed_pairIPPNS_16__hash_node_baseIPNS_11__hash_nodeINS_17__hash_value_typeIyN3LOB5OrderEEEPvEEEENS_25__bucket_list_deallocatorINS_9allocatorISB_EEEEE5firstB7v160006Ev, symObjAddr: 0x3F70, symBinAddr: 0x100006730, symSize: 0x20 }
  - { offsetInCU: 0x16261, offset: 0x16261, size: 0x8, addend: 0x0, symName: __ZNSt3__125__bucket_list_deallocatorINS_9allocatorIPNS_16__hash_node_baseIPNS_11__hash_nodeINS_17__hash_value_typeIyN3LOB5OrderEEEPvEEEEEEEclB7v160006EPSC_, symObjAddr: 0x3F90, symBinAddr: 0x100006750, symSize: 0x50 }
  - { offsetInCU: 0x16296, offset: 0x16296, size: 0x8, addend: 0x0, symName: __ZNSt3__122__compressed_pair_elemIPPNS_16__hash_node_baseIPNS_11__hash_nodeINS_17__hash_value_typeIyN3LOB5OrderEEEPvEEEELi0ELb0EE5__getB7v160006Ev, symObjAddr: 0x3FE0, symBinAddr: 0x1000067A0, symSize: 0x10 }
  - { offsetInCU: 0x162BC, offset: 0x162BC, size: 0x8, addend: 0x0, symName: __ZNSt3__116allocator_traitsINS_9allocatorIPNS_16__hash_node_baseIPNS_11__hash_nodeINS_17__hash_value_typeIyN3LOB5OrderEEEPvEEEEEEE10deallocateB7v160006ERSD_PSC_m, symObjAddr: 0x3FF0, symBinAddr: 0x1000067B0, symSize: 0x30 }
  - { offsetInCU: 0x162FE, offset: 0x162FE, size: 0x8, addend: 0x0, symName: __ZNSt3__19allocatorIPNS_16__hash_node_baseIPNS_11__hash_nodeINS_17__hash_value_typeIyN3LOB5OrderEEEPvEEEEE10deallocateB7v160006EPSB_m, symObjAddr: 0x4020, symBinAddr: 0x1000067E0, symSize: 0x40 }
  - { offsetInCU: 0x16340, offset: 0x16340, size: 0x8, addend: 0x0, symName: __ZNSt3__19allocatorIPNS_16__hash_node_baseIPNS_11__hash_nodeINS_17__hash_value_typeIyN3LOB5OrderEEEPvEEEEE8allocateB7v160006Em, symObjAddr: 0x4060, symBinAddr: 0x100006820, symSize: 0x50 }
  - { offsetInCU: 0x1637E, offset: 0x1637E, size: 0x8, addend: 0x0, symName: __ZNSt3__116allocator_traitsINS_9allocatorIPNS_16__hash_node_baseIPNS_11__hash_nodeINS_17__hash_value_typeIyN3LOB5OrderEEEPvEEEEEEE8max_sizeB7v160006ISD_vvEEmRKSD_, symObjAddr: 0x40B0, symBinAddr: 0x100006870, symSize: 0x20 }
  - { offsetInCU: 0x163AA, offset: 0x163AA, size: 0x8, addend: 0x0, symName: __ZNSt3__117__compressed_pairImNS_9allocatorIPNS_16__hash_node_baseIPNS_11__hash_nodeINS_17__hash_value_typeIyN3LOB5OrderEEEPvEEEEEEE5firstB7v160006Ev, symObjAddr: 0x40D0, symBinAddr: 0x100006890, symSize: 0x20 }
  - { offsetInCU: 0x163DA, offset: 0x163DA, size: 0x8, addend: 0x0, symName: __ZNKSt3__16__lessImmEclB7v160006ERKmS3_, symObjAddr: 0x4160, symBinAddr: 0x100006920, symSize: 0x30 }
  - { offsetInCU: 0x1641C, offset: 0x1641C, size: 0x8, addend: 0x0, symName: __ZNKSt3__117__compressed_pairIPNS_11__hash_nodeINS_17__hash_value_typeIyN3LOB5OrderEEEPvEENS_22__hash_node_destructorINS_9allocatorIS7_EEEEE5firstB7v160006Ev, symObjAddr: 0x4190, symBinAddr: 0x100006950, symSize: 0x20 }
  - { offsetInCU: 0x16442, offset: 0x16442, size: 0x8, addend: 0x0, symName: __ZNKSt3__122__compressed_pair_elemIPNS_11__hash_nodeINS_17__hash_value_typeIyN3LOB5OrderEEEPvEELi0ELb0EE5__getB7v160006Ev, symObjAddr: 0x41B0, symBinAddr: 0x100006970, symSize: 0x10 }
  - { offsetInCU: 0x16468, offset: 0x16468, size: 0x8, addend: 0x0, symName: __ZNSt3__117__compressed_pairIPNS_11__hash_nodeINS_17__hash_value_typeIyN3LOB5OrderEEEPvEENS_22__hash_node_destructorINS_9allocatorIS7_EEEEE5firstB7v160006Ev, symObjAddr: 0x41C0, symBinAddr: 0x100006980, symSize: 0x20 }
  - { offsetInCU: 0x1648E, offset: 0x1648E, size: 0x8, addend: 0x0, symName: __ZNSt3__122__compressed_pair_elemIPNS_11__hash_nodeINS_17__hash_value_typeIyN3LOB5OrderEEEPvEELi0ELb0EE5__getB7v160006Ev, symObjAddr: 0x41E0, symBinAddr: 0x1000069A0, symSize: 0x10 }
  - { offsetInCU: 0x164B4, offset: 0x164B4, size: 0x8, addend: 0x0, symName: __ZNSt3__110unique_ptrINS_11__hash_nodeINS_17__hash_value_typeIyN3LOB5OrderEEEPvEENS_22__hash_node_destructorINS_9allocatorIS7_EEEEED2B7v160006Ev, symObjAddr: 0x41F0, symBinAddr: 0x1000069B0, symSize: 0x20 }
  - { offsetInCU: 0x164DE, offset: 0x164DE, size: 0x8, addend: 0x0, symName: __ZNSt3__110unique_ptrINS_11__hash_nodeINS_17__hash_value_typeIyN3LOB5OrderEEEPvEENS_22__hash_node_destructorINS_9allocatorIS7_EEEEE5resetB7v160006EPS7_, symObjAddr: 0x4210, symBinAddr: 0x1000069D0, symSize: 0x70 }
  - { offsetInCU: 0x16522, offset: 0x16522, size: 0x8, addend: 0x0, symName: __ZNSt3__122__hash_node_destructorINS_9allocatorINS_11__hash_nodeINS_17__hash_value_typeIyN3LOB5OrderEEEPvEEEEEclB7v160006EPS8_, symObjAddr: 0x4280, symBinAddr: 0x100006A40, symSize: 0x90 }
  - { offsetInCU: 0x16557, offset: 0x16557, size: 0x8, addend: 0x0, symName: __ZNSt3__115__hash_iteratorIPNS_11__hash_nodeINS_17__hash_value_typeIyN3LOB5OrderEEEPvEEEC2B7v160006EPNS_16__hash_node_baseIS8_EEPKv, symObjAddr: 0x4310, symBinAddr: 0x100006AD0, symSize: 0x20 }
  - { offsetInCU: 0x1659F, offset: 0x1659F, size: 0x8, addend: 0x0, symName: __ZNSt3__14pairINS_15__hash_iteratorIPNS_11__hash_nodeINS_17__hash_value_typeIyN3LOB5OrderEEEPvEEEEbEC2B7v160006ISA_RbLS7_0EEEOT_OT0_, symObjAddr: 0x4330, symBinAddr: 0x100006AF0, symSize: 0x30 }
  - { offsetInCU: 0x165FD, offset: 0x165FD, size: 0x8, addend: 0x0, symName: __ZNSt3__14pairINS_19__hash_map_iteratorINS_15__hash_iteratorIPNS_11__hash_nodeINS_17__hash_value_typeIyN3LOB5OrderEEEPvEEEEEEbEC2B7v160006ISB_bLS8_0EEEONS0_IT_T0_EE, symObjAddr: 0x4360, symBinAddr: 0x100006B20, symSize: 0x50 }
  - { offsetInCU: 0x1664E, offset: 0x1664E, size: 0x8, addend: 0x0, symName: __ZNSt3__119__hash_map_iteratorINS_15__hash_iteratorIPNS_11__hash_nodeINS_17__hash_value_typeIyN3LOB5OrderEEEPvEEEEEC1B7v160006ESA_, symObjAddr: 0x43B0, symBinAddr: 0x100006B70, symSize: 0x30 }
  - { offsetInCU: 0x16687, offset: 0x16687, size: 0x8, addend: 0x0, symName: __ZNSt3__119__hash_map_iteratorINS_15__hash_iteratorIPNS_11__hash_nodeINS_17__hash_value_typeIyN3LOB5OrderEEEPvEEEEEC2B7v160006ESA_, symObjAddr: 0x43E0, symBinAddr: 0x100006BA0, symSize: 0x20 }
  - { offsetInCU: 0x166C0, offset: 0x166C0, size: 0x8, addend: 0x0, symName: __ZNSt3__113unordered_mapIyN3LOB5OrderENS_4hashIyEENS_8equal_toIyEENS_9allocatorINS_4pairIKyS2_EEEEE4findB7v160006ERS9_, symObjAddr: 0x4400, symBinAddr: 0x100006BC0, symSize: 0x40 }
  - { offsetInCU: 0x166F5, offset: 0x166F5, size: 0x8, addend: 0x0, symName: __ZNSt3__113unordered_mapIyN3LOB5OrderENS_4hashIyEENS_8equal_toIyEENS_9allocatorINS_4pairIKyS2_EEEEE3endB7v160006Ev, symObjAddr: 0x4470, symBinAddr: 0x100006C30, symSize: 0x30 }
  - { offsetInCU: 0x1671B, offset: 0x1671B, size: 0x8, addend: 0x0, symName: __ZNKSt3__119__hash_map_iteratorINS_15__hash_iteratorIPNS_11__hash_nodeINS_17__hash_value_typeIyN3LOB5OrderEEEPvEEEEEptB7v160006Ev, symObjAddr: 0x4510, symBinAddr: 0x100006CD0, symSize: 0x30 }
  - { offsetInCU: 0x16741, offset: 0x16741, size: 0x8, addend: 0x0, symName: __ZNSt3__112__hash_tableINS_17__hash_value_typeIyN3LOB5OrderEEENS_22__unordered_map_hasherIyS4_NS_4hashIyEENS_8equal_toIyEELb1EEENS_21__unordered_map_equalIyS4_S9_S7_Lb1EEENS_9allocatorIS4_EEE4findIyEENS_15__hash_iteratorIPNS_11__hash_nodeIS4_PvEEEERKT_, symObjAddr: 0x4540, symBinAddr: 0x100006D00, symSize: 0x180 }
  - { offsetInCU: 0x167CB, offset: 0x167CB, size: 0x8, addend: 0x0, symName: __ZNSt3__112__hash_tableINS_17__hash_value_typeIyN3LOB5OrderEEENS_22__unordered_map_hasherIyS4_NS_4hashIyEENS_8equal_toIyEELb1EEENS_21__unordered_map_equalIyS4_S9_S7_Lb1EEENS_9allocatorIS4_EEE3endEv, symObjAddr: 0x46C0, symBinAddr: 0x100006E80, symSize: 0x30 }
  - { offsetInCU: 0x167F3, offset: 0x167F3, size: 0x8, addend: 0x0, symName: __ZNSt12out_of_rangeC1B7v160006EPKc, symObjAddr: 0x4720, symBinAddr: 0x100006EE0, symSize: 0x30 }
  - { offsetInCU: 0x1682B, offset: 0x1682B, size: 0x8, addend: 0x0, symName: __ZNSt12out_of_rangeC2B7v160006EPKc, symObjAddr: 0x4750, symBinAddr: 0x100006F10, symSize: 0x40 }
  - { offsetInCU: 0x16863, offset: 0x16863, size: 0x8, addend: 0x0, symName: __ZNSt3__114pointer_traitsIPNS_4pairIKyN3LOB5OrderEEEE10pointer_toB7v160006ERS5_, symObjAddr: 0x4790, symBinAddr: 0x100006F50, symSize: 0x10 }
  - { offsetInCU: 0x16886, offset: 0x16886, size: 0x8, addend: 0x0, symName: __ZNKSt3__115__hash_iteratorIPNS_11__hash_nodeINS_17__hash_value_typeIyN3LOB5OrderEEEPvEEEptB7v160006Ev, symObjAddr: 0x47A0, symBinAddr: 0x100006F60, symSize: 0x30 }
  - { offsetInCU: 0x168AC, offset: 0x168AC, size: 0x8, addend: 0x0, symName: __ZNSt3__114pointer_traitsIPNS_17__hash_value_typeIyN3LOB5OrderEEEE10pointer_toB7v160006ERS4_, symObjAddr: 0x47D0, symBinAddr: 0x100006F90, symSize: 0x10 }
  - { offsetInCU: 0x168CF, offset: 0x168CF, size: 0x8, addend: 0x0, symName: __ZNSt3__112__hash_tableINS_17__hash_value_typeIyN3LOB5OrderEEENS_22__unordered_map_hasherIyS4_NS_4hashIyEENS_8equal_toIyEELb1EEENS_21__unordered_map_equalIyS4_S9_S7_Lb1EEENS_9allocatorIS4_EEE14__erase_uniqueIyEEmRKT_, symObjAddr: 0x47E0, symBinAddr: 0x100006FA0, symSize: 0x90 }
  - { offsetInCU: 0x1691E, offset: 0x1691E, size: 0x8, addend: 0x0, symName: __ZNSt3__112__hash_tableINS_17__hash_value_typeIyN3LOB5OrderEEENS_22__unordered_map_hasherIyS4_NS_4hashIyEENS_8equal_toIyEELb1EEENS_21__unordered_map_equalIyS4_S9_S7_Lb1EEENS_9allocatorIS4_EEE5eraseENS_21__hash_const_iteratorIPNS_11__hash_nodeIS4_PvEEEE, symObjAddr: 0x4870, symBinAddr: 0x100007030, symSize: 0x70 }
  - { offsetInCU: 0x16973, offset: 0x16973, size: 0x8, addend: 0x0, symName: __ZNSt3__121__hash_const_iteratorIPNS_11__hash_nodeINS_17__hash_value_typeIyN3LOB5OrderEEEPvEEEC1B7v160006ERKNS_15__hash_iteratorIS8_EE, symObjAddr: 0x48E0, symBinAddr: 0x1000070A0, symSize: 0x30 }
  - { offsetInCU: 0x169AC, offset: 0x169AC, size: 0x8, addend: 0x0, symName: __ZNSt3__115__hash_iteratorIPNS_11__hash_nodeINS_17__hash_value_typeIyN3LOB5OrderEEEPvEEEppB7v160006Ev, symObjAddr: 0x4910, symBinAddr: 0x1000070D0, symSize: 0x20 }
  - { offsetInCU: 0x169D2, offset: 0x169D2, size: 0x8, addend: 0x0, symName: __ZNSt3__112__hash_tableINS_17__hash_value_typeIyN3LOB5OrderEEENS_22__unordered_map_hasherIyS4_NS_4hashIyEENS_8equal_toIyEELb1EEENS_21__unordered_map_equalIyS4_S9_S7_Lb1EEENS_9allocatorIS4_EEE6removeENS_21__hash_const_iteratorIPNS_11__hash_nodeIS4_PvEEEE, symObjAddr: 0x4930, symBinAddr: 0x1000070F0, symSize: 0x1F0 }
  - { offsetInCU: 0x16A62, offset: 0x16A62, size: 0x8, addend: 0x0, symName: __ZNSt3__121__hash_const_iteratorIPNS_11__hash_nodeINS_17__hash_value_typeIyN3LOB5OrderEEEPvEEEC2B7v160006ERKNS_15__hash_iteratorIS8_EE, symObjAddr: 0x4B20, symBinAddr: 0x1000072E0, symSize: 0x20 }
  - { offsetInCU: 0x16A9B, offset: 0x16A9B, size: 0x8, addend: 0x0, symName: __ZNSt3__14listIPN3LOB5OrderENS_9allocatorIS3_EEE5frontB7v160006Ev, symObjAddr: 0x4B80, symBinAddr: 0x100007340, symSize: 0x30 }
  - { offsetInCU: 0x16ACB, offset: 0x16ACB, size: 0x8, addend: 0x0, symName: '__ZZN3LOB14LimitOrderBook8limitBuyEyyyENK3$_0clEy', symObjAddr: 0x4BB0, symBinAddr: 0x100007370, symSize: 0x30 }
  - { offsetInCU: 0x16B03, offset: 0x16B03, size: 0x8, addend: 0x0, symName: __ZNKSt3__13mapIyPN3LOB5LimitENS_4lessIyEENS_9allocatorINS_4pairIKyS3_EEEEE5countB7v160006ERS8_, symObjAddr: 0x4BE0, symBinAddr: 0x1000073A0, symSize: 0x30 }
  - { offsetInCU: 0x16B38, offset: 0x16B38, size: 0x8, addend: 0x0, symName: __ZN3LOB5LimitC1EPNS_5OrderE, symObjAddr: 0x4C10, symBinAddr: 0x1000073D0, symSize: 0x30 }
  - { offsetInCU: 0x16B75, offset: 0x16B75, size: 0x8, addend: 0x0, symName: __ZNSt3__13mapIyPN3LOB5LimitENS_4lessIyEENS_9allocatorINS_4pairIKyS3_EEEEE7emplaceB7v160006IJRS8_RS3_EEENS7_INS_14__map_iteratorINS_15__tree_iteratorINS_12__value_typeIyS3_EEPNS_11__tree_nodeISI_PvEElEEEEbEEDpOT_, symObjAddr: 0x4CA0, symBinAddr: 0x100007460, symSize: 0x50 }
  - { offsetInCU: 0x16BC9, offset: 0x16BC9, size: 0x8, addend: 0x0, symName: __ZNSt3__13mapIyPN3LOB5LimitENS_4lessIyEENS_9allocatorINS_4pairIKyS3_EEEEEixERS8_, symObjAddr: 0x4CF0, symBinAddr: 0x1000074B0, symSize: 0x70 }
  - { offsetInCU: 0x16C00, offset: 0x16C00, size: 0x8, addend: 0x0, symName: __ZNSt3__14listIPN3LOB5OrderENS_9allocatorIS3_EEE9push_backERKS3_, symObjAddr: 0x4D60, symBinAddr: 0x100007520, symSize: 0x100 }
  - { offsetInCU: 0x16C5A, offset: 0x16C5A, size: 0x8, addend: 0x0, symName: __ZNSt3__113unordered_mapIiNS_15__list_iteratorIPN3LOB5OrderEPvEENS_4hashIiEENS_8equal_toIiEENS_9allocatorINS_4pairIKiS6_EEEEE7emplaceB7v160006IJRKyS6_EEENSC_INS_19__hash_map_iteratorINS_15__hash_iteratorIPNS_11__hash_nodeINS_17__hash_value_typeIiS6_EES5_EEEEEEbEEDpOT_, symObjAddr: 0x4E60, symBinAddr: 0x100007620, symSize: 0x50 }
  - { offsetInCU: 0x16CAE, offset: 0x16CAE, size: 0x8, addend: 0x0, symName: __ZNSt3__14listIPN3LOB5OrderENS_9allocatorIS3_EEE3endB7v160006Ev, symObjAddr: 0x4F00, symBinAddr: 0x1000076C0, symSize: 0x30 }
  - { offsetInCU: 0x16CD4, offset: 0x16CD4, size: 0x8, addend: 0x0, symName: __ZNSt3__13mapIyPN3LOB5LimitENS_4lessIyEENS_9allocatorINS_4pairIKyS3_EEEEE2atERS8_, symObjAddr: 0x4F30, symBinAddr: 0x1000076F0, symSize: 0x60 }
  - { offsetInCU: 0x16D29, offset: 0x16D29, size: 0x8, addend: 0x0, symName: __ZNSt3__14listIPN3LOB5OrderENS_9allocatorIS3_EEE12emplace_backIJRS3_EEES8_DpOT_, symObjAddr: 0x4F90, symBinAddr: 0x100007750, symSize: 0xE0 }
  - { offsetInCU: 0x16D99, offset: 0x16D99, size: 0x8, addend: 0x0, symName: __ZNKSt3__16__treeINS_12__value_typeIyPN3LOB5LimitEEENS_19__map_value_compareIyS5_NS_4lessIyEELb1EEENS_9allocatorIS5_EEE14__count_uniqueIyEEmRKT_, symObjAddr: 0x5070, symBinAddr: 0x100007830, symSize: 0xD0 }
  - { offsetInCU: 0x16DE8, offset: 0x16DE8, size: 0x8, addend: 0x0, symName: __ZNKSt3__16__treeINS_12__value_typeIyPN3LOB5LimitEEENS_19__map_value_compareIyS5_NS_4lessIyEELb1EEENS_9allocatorIS5_EEE10value_compB7v160006Ev, symObjAddr: 0x5140, symBinAddr: 0x100007900, symSize: 0x20 }
  - { offsetInCU: 0x16E0E, offset: 0x16E0E, size: 0x8, addend: 0x0, symName: __ZNKSt3__119__map_value_compareIyNS_12__value_typeIyPN3LOB5LimitEEENS_4lessIyEELb1EEclB7v160006ERKyRKS5_, symObjAddr: 0x5160, symBinAddr: 0x100007920, symSize: 0x50 }
  - { offsetInCU: 0x16E52, offset: 0x16E52, size: 0x8, addend: 0x0, symName: __ZNKSt3__119__map_value_compareIyNS_12__value_typeIyPN3LOB5LimitEEENS_4lessIyEELb1EEclB7v160006ERKS5_RKy, symObjAddr: 0x51B0, symBinAddr: 0x100007970, symSize: 0x40 }
  - { offsetInCU: 0x16E96, offset: 0x16E96, size: 0x8, addend: 0x0, symName: __ZNKSt3__117__compressed_pairImNS_19__map_value_compareIyNS_12__value_typeIyPN3LOB5LimitEEENS_4lessIyEELb1EEEE6secondB7v160006Ev, symObjAddr: 0x51F0, symBinAddr: 0x1000079B0, symSize: 0x20 }
  - { offsetInCU: 0x16EBC, offset: 0x16EBC, size: 0x8, addend: 0x0, symName: __ZNKSt3__122__compressed_pair_elemINS_19__map_value_compareIyNS_12__value_typeIyPN3LOB5LimitEEENS_4lessIyEELb1EEELi1ELb1EE5__getB7v160006Ev, symObjAddr: 0x5210, symBinAddr: 0x1000079D0, symSize: 0x10 }
  - { offsetInCU: 0x16EE2, offset: 0x16EE2, size: 0x8, addend: 0x0, symName: __ZNKSt3__14lessIyEclB7v160006ERKyS3_, symObjAddr: 0x5220, symBinAddr: 0x1000079E0, symSize: 0x30 }
  - { offsetInCU: 0x16F26, offset: 0x16F26, size: 0x8, addend: 0x0, symName: __ZNKSt3__112__value_typeIyPN3LOB5LimitEE11__get_valueB7v160006Ev, symObjAddr: 0x5250, symBinAddr: 0x100007A10, symSize: 0x20 }
  - { offsetInCU: 0x16F4C, offset: 0x16F4C, size: 0x8, addend: 0x0, symName: __ZN3LOB5LimitC2EPNS_5OrderE, symObjAddr: 0x52A0, symBinAddr: 0x100007A60, symSize: 0x60 }
  - { offsetInCU: 0x16F84, offset: 0x16F84, size: 0x8, addend: 0x0, symName: __ZNSt3__14listIPN3LOB5OrderENS_9allocatorIS3_EEEC1B7v160006Ev, symObjAddr: 0x5300, symBinAddr: 0x100007AC0, symSize: 0x20 }
  - { offsetInCU: 0x16FAE, offset: 0x16FAE, size: 0x8, addend: 0x0, symName: __ZNSt3__113unordered_mapIiNS_15__list_iteratorIPN3LOB5OrderEPvEENS_4hashIiEENS_8equal_toIiEENS_9allocatorINS_4pairIKiS6_EEEEEC1B7v160006Ev, symObjAddr: 0x5320, symBinAddr: 0x100007AE0, symSize: 0x20 }
  - { offsetInCU: 0x16FD8, offset: 0x16FD8, size: 0x8, addend: 0x0, symName: __ZNSt3__14listIPN3LOB5OrderENS_9allocatorIS3_EEEC2B7v160006Ev, symObjAddr: 0x5340, symBinAddr: 0x100007B00, symSize: 0x40 }
  - { offsetInCU: 0x17002, offset: 0x17002, size: 0x8, addend: 0x0, symName: __ZNSt3__110__list_impIPN3LOB5OrderENS_9allocatorIS3_EEEC2Ev, symObjAddr: 0x5380, symBinAddr: 0x100007B40, symSize: 0x50 }
  - { offsetInCU: 0x1702E, offset: 0x1702E, size: 0x8, addend: 0x0, symName: __ZNSt3__116__list_node_baseIPN3LOB5OrderEPvEC1B7v160006Ev, symObjAddr: 0x53E0, symBinAddr: 0x100007BA0, symSize: 0x20 }
  - { offsetInCU: 0x1705D, offset: 0x1705D, size: 0x8, addend: 0x0, symName: __ZNSt3__117__compressed_pairImNS_9allocatorINS_11__list_nodeIPN3LOB5OrderEPvEEEEEC1B7v160006IiNS_18__default_init_tagEEEOT_OT0_, symObjAddr: 0x5400, symBinAddr: 0x100007BC0, symSize: 0x30 }
  - { offsetInCU: 0x170B5, offset: 0x170B5, size: 0x8, addend: 0x0, symName: __ZNSt3__116__list_node_baseIPN3LOB5OrderEPvEC2B7v160006Ev, symObjAddr: 0x5430, symBinAddr: 0x100007BF0, symSize: 0x50 }
  - { offsetInCU: 0x170DF, offset: 0x170DF, size: 0x8, addend: 0x0, symName: __ZNSt3__117__compressed_pairImNS_9allocatorINS_11__list_nodeIPN3LOB5OrderEPvEEEEEC2B7v160006IiNS_18__default_init_tagEEEOT_OT0_, symObjAddr: 0x5480, symBinAddr: 0x100007C40, symSize: 0x40 }
  - { offsetInCU: 0x17137, offset: 0x17137, size: 0x8, addend: 0x0, symName: __ZNSt3__122__compressed_pair_elemImLi0ELb0EEC2B7v160006IivEEOT_, symObjAddr: 0x54C0, symBinAddr: 0x100007C80, symSize: 0x20 }
  - { offsetInCU: 0x17179, offset: 0x17179, size: 0x8, addend: 0x0, symName: __ZNSt3__122__compressed_pair_elemINS_9allocatorINS_11__list_nodeIPN3LOB5OrderEPvEEEELi1ELb1EEC2B7v160006ENS_18__default_init_tagE, symObjAddr: 0x54E0, symBinAddr: 0x100007CA0, symSize: 0x20 }
  - { offsetInCU: 0x171AD, offset: 0x171AD, size: 0x8, addend: 0x0, symName: __ZNSt3__19allocatorINS_11__list_nodeIPN3LOB5OrderEPvEEEC2B7v160006Ev, symObjAddr: 0x5500, symBinAddr: 0x100007CC0, symSize: 0x20 }
  - { offsetInCU: 0x171D7, offset: 0x171D7, size: 0x8, addend: 0x0, symName: __ZNSt3__116__non_trivial_ifILb1ENS_9allocatorINS_11__list_nodeIPN3LOB5OrderEPvEEEEEC2B7v160006Ev, symObjAddr: 0x5520, symBinAddr: 0x100007CE0, symSize: 0x10 }
  - { offsetInCU: 0x17201, offset: 0x17201, size: 0x8, addend: 0x0, symName: __ZNSt3__113unordered_mapIiNS_15__list_iteratorIPN3LOB5OrderEPvEENS_4hashIiEENS_8equal_toIiEENS_9allocatorINS_4pairIKiS6_EEEEEC2B7v160006Ev, symObjAddr: 0x5530, symBinAddr: 0x100007CF0, symSize: 0x40 }
  - { offsetInCU: 0x1722B, offset: 0x1722B, size: 0x8, addend: 0x0, symName: __ZNSt3__112__hash_tableINS_17__hash_value_typeIiNS_15__list_iteratorIPN3LOB5OrderEPvEEEENS_22__unordered_map_hasherIiS8_NS_4hashIiEENS_8equal_toIiEELb1EEENS_21__unordered_map_equalIiS8_SD_SB_Lb1EEENS_9allocatorIS8_EEEC1Ev, symObjAddr: 0x5570, symBinAddr: 0x100007D30, symSize: 0x20 }
  - { offsetInCU: 0x17257, offset: 0x17257, size: 0x8, addend: 0x0, symName: __ZNSt3__112__hash_tableINS_17__hash_value_typeIiNS_15__list_iteratorIPN3LOB5OrderEPvEEEENS_22__unordered_map_hasherIiS8_NS_4hashIiEENS_8equal_toIiEELb1EEENS_21__unordered_map_equalIiS8_SD_SB_Lb1EEENS_9allocatorIS8_EEEC2Ev, symObjAddr: 0x55A0, symBinAddr: 0x100007D60, symSize: 0x80 }
  - { offsetInCU: 0x17283, offset: 0x17283, size: 0x8, addend: 0x0, symName: __ZNSt3__110unique_ptrIA_PNS_16__hash_node_baseIPNS_11__hash_nodeINS_17__hash_value_typeIiNS_15__list_iteratorIPN3LOB5OrderEPvEEEES8_EEEENS_25__bucket_list_deallocatorINS_9allocatorISE_EEEEEC1B7v160006ILb1EvEEv, symObjAddr: 0x5620, symBinAddr: 0x100007DE0, symSize: 0x20 }
  - { offsetInCU: 0x172B8, offset: 0x172B8, size: 0x8, addend: 0x0, symName: __ZNSt3__117__compressed_pairINS_16__hash_node_baseIPNS_11__hash_nodeINS_17__hash_value_typeIiNS_15__list_iteratorIPN3LOB5OrderEPvEEEES8_EEEENS_9allocatorISB_EEEC1B7v160006ILb1EvEEv, symObjAddr: 0x5640, symBinAddr: 0x100007E00, symSize: 0x20 }
  - { offsetInCU: 0x172ED, offset: 0x172ED, size: 0x8, addend: 0x0, symName: __ZNSt3__117__compressed_pairImNS_22__unordered_map_hasherIiNS_17__hash_value_typeIiNS_15__list_iteratorIPN3LOB5OrderEPvEEEENS_4hashIiEENS_8equal_toIiEELb1EEEEC1B7v160006IiNS_18__default_init_tagEEEOT_OT0_, symObjAddr: 0x5660, symBinAddr: 0x100007E20, symSize: 0x30 }
  - { offsetInCU: 0x1734A, offset: 0x1734A, size: 0x8, addend: 0x0, symName: __ZNSt3__117__compressed_pairIfNS_21__unordered_map_equalIiNS_17__hash_value_typeIiNS_15__list_iteratorIPN3LOB5OrderEPvEEEENS_8equal_toIiEENS_4hashIiEELb1EEEEC1B7v160006IfNS_18__default_init_tagEEEOT_OT0_, symObjAddr: 0x5690, symBinAddr: 0x100007E50, symSize: 0x30 }
  - { offsetInCU: 0x173A2, offset: 0x173A2, size: 0x8, addend: 0x0, symName: __ZNSt3__110unique_ptrIA_PNS_16__hash_node_baseIPNS_11__hash_nodeINS_17__hash_value_typeIiNS_15__list_iteratorIPN3LOB5OrderEPvEEEES8_EEEENS_25__bucket_list_deallocatorINS_9allocatorISE_EEEEEC2B7v160006ILb1EvEEv, symObjAddr: 0x56C0, symBinAddr: 0x100007E80, symSize: 0x30 }
  - { offsetInCU: 0x173DC, offset: 0x173DC, size: 0x8, addend: 0x0, symName: __ZNSt3__117__compressed_pairIPPNS_16__hash_node_baseIPNS_11__hash_nodeINS_17__hash_value_typeIiNS_15__list_iteratorIPN3LOB5OrderEPvEEEES8_EEEENS_25__bucket_list_deallocatorINS_9allocatorISE_EEEEEC1B7v160006INS_16__value_init_tagESM_EEOT_OT0_, symObjAddr: 0x56F0, symBinAddr: 0x100007EB0, symSize: 0x30 }
  - { offsetInCU: 0x17434, offset: 0x17434, size: 0x8, addend: 0x0, symName: __ZNSt3__117__compressed_pairIPPNS_16__hash_node_baseIPNS_11__hash_nodeINS_17__hash_value_typeIiNS_15__list_iteratorIPN3LOB5OrderEPvEEEES8_EEEENS_25__bucket_list_deallocatorINS_9allocatorISE_EEEEEC2B7v160006INS_16__value_init_tagESM_EEOT_OT0_, symObjAddr: 0x5720, symBinAddr: 0x100007EE0, symSize: 0x40 }
  - { offsetInCU: 0x1748C, offset: 0x1748C, size: 0x8, addend: 0x0, symName: __ZNSt3__122__compressed_pair_elemIPPNS_16__hash_node_baseIPNS_11__hash_nodeINS_17__hash_value_typeIiNS_15__list_iteratorIPN3LOB5OrderEPvEEEES8_EEEELi0ELb0EEC2B7v160006ENS_16__value_init_tagE, symObjAddr: 0x5760, symBinAddr: 0x100007F20, symSize: 0x20 }
  - { offsetInCU: 0x174C0, offset: 0x174C0, size: 0x8, addend: 0x0, symName: __ZNSt3__122__compressed_pair_elemINS_25__bucket_list_deallocatorINS_9allocatorIPNS_16__hash_node_baseIPNS_11__hash_nodeINS_17__hash_value_typeIiNS_15__list_iteratorIPN3LOB5OrderEPvEEEESA_EEEEEEEELi1ELb0EEC2B7v160006ENS_16__value_init_tagE, symObjAddr: 0x5780, symBinAddr: 0x100007F40, symSize: 0x20 }
  - { offsetInCU: 0x174F4, offset: 0x174F4, size: 0x8, addend: 0x0, symName: __ZNSt3__125__bucket_list_deallocatorINS_9allocatorIPNS_16__hash_node_baseIPNS_11__hash_nodeINS_17__hash_value_typeIiNS_15__list_iteratorIPN3LOB5OrderEPvEEEES9_EEEEEEEC1B7v160006Ev, symObjAddr: 0x57A0, symBinAddr: 0x100007F60, symSize: 0x20 }
  - { offsetInCU: 0x1751E, offset: 0x1751E, size: 0x8, addend: 0x0, symName: __ZNSt3__125__bucket_list_deallocatorINS_9allocatorIPNS_16__hash_node_baseIPNS_11__hash_nodeINS_17__hash_value_typeIiNS_15__list_iteratorIPN3LOB5OrderEPvEEEES9_EEEEEEEC2B7v160006Ev, symObjAddr: 0x57C0, symBinAddr: 0x100007F80, symSize: 0x40 }
  - { offsetInCU: 0x17548, offset: 0x17548, size: 0x8, addend: 0x0, symName: __ZNSt3__117__compressed_pairImNS_9allocatorIPNS_16__hash_node_baseIPNS_11__hash_nodeINS_17__hash_value_typeIiNS_15__list_iteratorIPN3LOB5OrderEPvEEEES9_EEEEEEEC1B7v160006IiNS_18__default_init_tagEEEOT_OT0_, symObjAddr: 0x5800, symBinAddr: 0x100007FC0, symSize: 0x30 }
  - { offsetInCU: 0x175A0, offset: 0x175A0, size: 0x8, addend: 0x0, symName: __ZNSt3__117__compressed_pairImNS_9allocatorIPNS_16__hash_node_baseIPNS_11__hash_nodeINS_17__hash_value_typeIiNS_15__list_iteratorIPN3LOB5OrderEPvEEEES9_EEEEEEEC2B7v160006IiNS_18__default_init_tagEEEOT_OT0_, symObjAddr: 0x5830, symBinAddr: 0x100007FF0, symSize: 0x40 }
  - { offsetInCU: 0x175F8, offset: 0x175F8, size: 0x8, addend: 0x0, symName: __ZNSt3__122__compressed_pair_elemINS_9allocatorIPNS_16__hash_node_baseIPNS_11__hash_nodeINS_17__hash_value_typeIiNS_15__list_iteratorIPN3LOB5OrderEPvEEEES9_EEEEEELi1ELb1EEC2B7v160006ENS_18__default_init_tagE, symObjAddr: 0x5870, symBinAddr: 0x100008030, symSize: 0x20 }
  - { offsetInCU: 0x1762C, offset: 0x1762C, size: 0x8, addend: 0x0, symName: __ZNSt3__19allocatorIPNS_16__hash_node_baseIPNS_11__hash_nodeINS_17__hash_value_typeIiNS_15__list_iteratorIPN3LOB5OrderEPvEEEES8_EEEEEC2B7v160006Ev, symObjAddr: 0x5890, symBinAddr: 0x100008050, symSize: 0x20 }
  - { offsetInCU: 0x17656, offset: 0x17656, size: 0x8, addend: 0x0, symName: __ZNSt3__116__non_trivial_ifILb1ENS_9allocatorIPNS_16__hash_node_baseIPNS_11__hash_nodeINS_17__hash_value_typeIiNS_15__list_iteratorIPN3LOB5OrderEPvEEEES9_EEEEEEEC2B7v160006Ev, symObjAddr: 0x58B0, symBinAddr: 0x100008070, symSize: 0x10 }
  - { offsetInCU: 0x17680, offset: 0x17680, size: 0x8, addend: 0x0, symName: __ZNSt3__117__compressed_pairINS_16__hash_node_baseIPNS_11__hash_nodeINS_17__hash_value_typeIiNS_15__list_iteratorIPN3LOB5OrderEPvEEEES8_EEEENS_9allocatorISB_EEEC2B7v160006ILb1EvEEv, symObjAddr: 0x58C0, symBinAddr: 0x100008080, symSize: 0x30 }
  - { offsetInCU: 0x176B5, offset: 0x176B5, size: 0x8, addend: 0x0, symName: __ZNSt3__122__compressed_pair_elemINS_16__hash_node_baseIPNS_11__hash_nodeINS_17__hash_value_typeIiNS_15__list_iteratorIPN3LOB5OrderEPvEEEES8_EEEELi0ELb0EEC2B7v160006ENS_16__value_init_tagE, symObjAddr: 0x58F0, symBinAddr: 0x1000080B0, symSize: 0x20 }
  - { offsetInCU: 0x176E9, offset: 0x176E9, size: 0x8, addend: 0x0, symName: __ZNSt3__122__compressed_pair_elemINS_9allocatorINS_11__hash_nodeINS_17__hash_value_typeIiNS_15__list_iteratorIPN3LOB5OrderEPvEEEES8_EEEELi1ELb1EEC2B7v160006ENS_16__value_init_tagE, symObjAddr: 0x5910, symBinAddr: 0x1000080D0, symSize: 0x20 }
  - { offsetInCU: 0x1771D, offset: 0x1771D, size: 0x8, addend: 0x0, symName: __ZNSt3__116__hash_node_baseIPNS_11__hash_nodeINS_17__hash_value_typeIiNS_15__list_iteratorIPN3LOB5OrderEPvEEEES7_EEEC1B7v160006Ev, symObjAddr: 0x5930, symBinAddr: 0x1000080F0, symSize: 0x20 }
  - { offsetInCU: 0x17747, offset: 0x17747, size: 0x8, addend: 0x0, symName: __ZNSt3__116__hash_node_baseIPNS_11__hash_nodeINS_17__hash_value_typeIiNS_15__list_iteratorIPN3LOB5OrderEPvEEEES7_EEEC2B7v160006Ev, symObjAddr: 0x5950, symBinAddr: 0x100008110, symSize: 0x20 }
  - { offsetInCU: 0x17771, offset: 0x17771, size: 0x8, addend: 0x0, symName: __ZNSt3__19allocatorINS_11__hash_nodeINS_17__hash_value_typeIiNS_15__list_iteratorIPN3LOB5OrderEPvEEEES7_EEEC2B7v160006Ev, symObjAddr: 0x5970, symBinAddr: 0x100008130, symSize: 0x20 }
  - { offsetInCU: 0x1779B, offset: 0x1779B, size: 0x8, addend: 0x0, symName: __ZNSt3__116__non_trivial_ifILb1ENS_9allocatorINS_11__hash_nodeINS_17__hash_value_typeIiNS_15__list_iteratorIPN3LOB5OrderEPvEEEES8_EEEEEC2B7v160006Ev, symObjAddr: 0x5990, symBinAddr: 0x100008150, symSize: 0x10 }
  - { offsetInCU: 0x177C5, offset: 0x177C5, size: 0x8, addend: 0x0, symName: __ZNSt3__117__compressed_pairImNS_22__unordered_map_hasherIiNS_17__hash_value_typeIiNS_15__list_iteratorIPN3LOB5OrderEPvEEEENS_4hashIiEENS_8equal_toIiEELb1EEEEC2B7v160006IiNS_18__default_init_tagEEEOT_OT0_, symObjAddr: 0x59A0, symBinAddr: 0x100008160, symSize: 0x40 }
  - { offsetInCU: 0x1781D, offset: 0x1781D, size: 0x8, addend: 0x0, symName: __ZNSt3__122__compressed_pair_elemINS_22__unordered_map_hasherIiNS_17__hash_value_typeIiNS_15__list_iteratorIPN3LOB5OrderEPvEEEENS_4hashIiEENS_8equal_toIiEELb1EEELi1ELb1EEC2B7v160006ENS_18__default_init_tagE, symObjAddr: 0x59E0, symBinAddr: 0x1000081A0, symSize: 0x20 }
  - { offsetInCU: 0x17851, offset: 0x17851, size: 0x8, addend: 0x0, symName: __ZNSt3__122__unordered_map_hasherIiNS_17__hash_value_typeIiNS_15__list_iteratorIPN3LOB5OrderEPvEEEENS_4hashIiEENS_8equal_toIiEELb1EEC2B7v160006Ev, symObjAddr: 0x5A00, symBinAddr: 0x1000081C0, symSize: 0x10 }
  - { offsetInCU: 0x1787B, offset: 0x1787B, size: 0x8, addend: 0x0, symName: __ZNSt3__117__compressed_pairIfNS_21__unordered_map_equalIiNS_17__hash_value_typeIiNS_15__list_iteratorIPN3LOB5OrderEPvEEEENS_8equal_toIiEENS_4hashIiEELb1EEEEC2B7v160006IfNS_18__default_init_tagEEEOT_OT0_, symObjAddr: 0x5A10, symBinAddr: 0x1000081D0, symSize: 0x40 }
  - { offsetInCU: 0x178D3, offset: 0x178D3, size: 0x8, addend: 0x0, symName: __ZNSt3__122__compressed_pair_elemIfLi0ELb0EEC2B7v160006IfvEEOT_, symObjAddr: 0x5A50, symBinAddr: 0x100008210, symSize: 0x20 }
  - { offsetInCU: 0x17915, offset: 0x17915, size: 0x8, addend: 0x0, symName: __ZNSt3__122__compressed_pair_elemINS_21__unordered_map_equalIiNS_17__hash_value_typeIiNS_15__list_iteratorIPN3LOB5OrderEPvEEEENS_8equal_toIiEENS_4hashIiEELb1EEELi1ELb1EEC2B7v160006ENS_18__default_init_tagE, symObjAddr: 0x5A70, symBinAddr: 0x100008230, symSize: 0x20 }
  - { offsetInCU: 0x17949, offset: 0x17949, size: 0x8, addend: 0x0, symName: __ZNSt3__121__unordered_map_equalIiNS_17__hash_value_typeIiNS_15__list_iteratorIPN3LOB5OrderEPvEEEENS_8equal_toIiEENS_4hashIiEELb1EEC2B7v160006Ev, symObjAddr: 0x5A90, symBinAddr: 0x100008250, symSize: 0x10 }
  - { offsetInCU: 0x17973, offset: 0x17973, size: 0x8, addend: 0x0, symName: __ZNSt3__16__treeINS_12__value_typeIyPN3LOB5LimitEEENS_19__map_value_compareIyS5_NS_4lessIyEELb1EEENS_9allocatorIS5_EEE16__emplace_uniqueB7v160006IRKyRS4_EENS_9enable_ifIXsr21__can_extract_map_keyIT_yNS_4pairISE_S4_EEEE5valueENSJ_INS_15__tree_iteratorIS5_PNS_11__tree_nodeIS5_PvEElEEbEEE4typeEOSI_OT0_, symObjAddr: 0x5AA0, symBinAddr: 0x100008260, symSize: 0x40 }
  - { offsetInCU: 0x179C9, offset: 0x179C9, size: 0x8, addend: 0x0, symName: __ZNSt3__14pairINS_14__map_iteratorINS_15__tree_iteratorINS_12__value_typeIyPN3LOB5LimitEEEPNS_11__tree_nodeIS7_PvEElEEEEbEC1B7v160006ISC_bLS9_0EEEONS0_IT_T0_EE, symObjAddr: 0x5AE0, symBinAddr: 0x1000082A0, symSize: 0x30 }
  - { offsetInCU: 0x17A1A, offset: 0x17A1A, size: 0x8, addend: 0x0, symName: __ZNSt3__16__treeINS_12__value_typeIyPN3LOB5LimitEEENS_19__map_value_compareIyS5_NS_4lessIyEELb1EEENS_9allocatorIS5_EEE25__emplace_unique_key_argsIyJRKyRS4_EEENS_4pairINS_15__tree_iteratorIS5_PNS_11__tree_nodeIS5_PvEElEEbEERKT_DpOT0_, symObjAddr: 0x5B10, symBinAddr: 0x1000082D0, symSize: 0xF0 }
  - { offsetInCU: 0x17AE4, offset: 0x17AE4, size: 0x8, addend: 0x0, symName: __ZNSt3__16__treeINS_12__value_typeIyPN3LOB5LimitEEENS_19__map_value_compareIyS5_NS_4lessIyEELb1EEENS_9allocatorIS5_EEE12__find_equalIyEERPNS_16__tree_node_baseIPvEERPNS_15__tree_end_nodeISH_EERKT_, symObjAddr: 0x5C00, symBinAddr: 0x1000083C0, symSize: 0x180 }
  - { offsetInCU: 0x17B51, offset: 0x17B51, size: 0x8, addend: 0x0, symName: __ZNSt3__16__treeINS_12__value_typeIyPN3LOB5LimitEEENS_19__map_value_compareIyS5_NS_4lessIyEELb1EEENS_9allocatorIS5_EEE16__construct_nodeIJRKyRS4_EEENS_10unique_ptrINS_11__tree_nodeIS5_PvEENS_22__tree_node_destructorINSA_ISK_EEEEEEDpOT_, symObjAddr: 0x5D80, symBinAddr: 0x100008540, symSize: 0x100 }
  - { offsetInCU: 0x17BC6, offset: 0x17BC6, size: 0x8, addend: 0x0, symName: __ZNSt3__16__treeINS_12__value_typeIyPN3LOB5LimitEEENS_19__map_value_compareIyS5_NS_4lessIyEELb1EEENS_9allocatorIS5_EEE16__insert_node_atEPNS_15__tree_end_nodeIPNS_16__tree_node_baseIPvEEEERSH_SH_, symObjAddr: 0x5E80, symBinAddr: 0x100008640, symSize: 0xC0 }
  - { offsetInCU: 0x17C1B, offset: 0x17C1B, size: 0x8, addend: 0x0, symName: __ZNKSt3__110unique_ptrINS_11__tree_nodeINS_12__value_typeIyPN3LOB5LimitEEEPvEENS_22__tree_node_destructorINS_9allocatorIS8_EEEEE3getB7v160006Ev, symObjAddr: 0x5F40, symBinAddr: 0x100008700, symSize: 0x20 }
  - { offsetInCU: 0x17C41, offset: 0x17C41, size: 0x8, addend: 0x0, symName: __ZNSt3__110unique_ptrINS_11__tree_nodeINS_12__value_typeIyPN3LOB5LimitEEEPvEENS_22__tree_node_destructorINS_9allocatorIS8_EEEEE7releaseB7v160006Ev, symObjAddr: 0x5F60, symBinAddr: 0x100008720, symSize: 0x40 }
  - { offsetInCU: 0x17C76, offset: 0x17C76, size: 0x8, addend: 0x0, symName: __ZNSt3__110unique_ptrINS_11__tree_nodeINS_12__value_typeIyPN3LOB5LimitEEEPvEENS_22__tree_node_destructorINS_9allocatorIS8_EEEEED1B7v160006Ev, symObjAddr: 0x5FA0, symBinAddr: 0x100008760, symSize: 0x20 }
  - { offsetInCU: 0x17CA0, offset: 0x17CA0, size: 0x8, addend: 0x0, symName: __ZNSt3__115__tree_iteratorINS_12__value_typeIyPN3LOB5LimitEEEPNS_11__tree_nodeIS5_PvEElEC1B7v160006ES9_, symObjAddr: 0x5FC0, symBinAddr: 0x100008780, symSize: 0x30 }
  - { offsetInCU: 0x17CDE, offset: 0x17CDE, size: 0x8, addend: 0x0, symName: __ZNSt3__14pairINS_15__tree_iteratorINS_12__value_typeIyPN3LOB5LimitEEEPNS_11__tree_nodeIS6_PvEElEEbEC1B7v160006ISB_RbLS8_0EEEOT_OT0_, symObjAddr: 0x5FF0, symBinAddr: 0x1000087B0, symSize: 0x30 }
  - { offsetInCU: 0x17D3C, offset: 0x17D3C, size: 0x8, addend: 0x0, symName: __ZNKSt3__16__treeINS_12__value_typeIyPN3LOB5LimitEEENS_19__map_value_compareIyS5_NS_4lessIyEELb1EEENS_9allocatorIS5_EEE10__root_ptrEv, symObjAddr: 0x6020, symBinAddr: 0x1000087E0, symSize: 0x20 }
  - { offsetInCU: 0x17D62, offset: 0x17D62, size: 0x8, addend: 0x0, symName: __ZNSt3__16__treeINS_12__value_typeIyPN3LOB5LimitEEENS_19__map_value_compareIyS5_NS_4lessIyEELb1EEENS_9allocatorIS5_EEE10value_compB7v160006Ev, symObjAddr: 0x6040, symBinAddr: 0x100008800, symSize: 0x20 }
  - { offsetInCU: 0x17D88, offset: 0x17D88, size: 0x8, addend: 0x0, symName: __ZNSt3__117__compressed_pairImNS_19__map_value_compareIyNS_12__value_typeIyPN3LOB5LimitEEENS_4lessIyEELb1EEEE6secondB7v160006Ev, symObjAddr: 0x6060, symBinAddr: 0x100008820, symSize: 0x20 }
  - { offsetInCU: 0x17DAE, offset: 0x17DAE, size: 0x8, addend: 0x0, symName: __ZNSt3__122__compressed_pair_elemINS_19__map_value_compareIyNS_12__value_typeIyPN3LOB5LimitEEENS_4lessIyEELb1EEELi1ELb1EE5__getB7v160006Ev, symObjAddr: 0x6080, symBinAddr: 0x100008840, symSize: 0x10 }
  - { offsetInCU: 0x17DD4, offset: 0x17DD4, size: 0x8, addend: 0x0, symName: __ZNSt3__116allocator_traitsINS_9allocatorINS_11__tree_nodeINS_12__value_typeIyPN3LOB5LimitEEEPvEEEEE8allocateB7v160006ERSA_m, symObjAddr: 0x6090, symBinAddr: 0x100008850, symSize: 0x30 }
  - { offsetInCU: 0x17E07, offset: 0x17E07, size: 0x8, addend: 0x0, symName: __ZNSt3__122__tree_node_destructorINS_9allocatorINS_11__tree_nodeINS_12__value_typeIyPN3LOB5LimitEEEPvEEEEEC1B7v160006ERSA_b, symObjAddr: 0x60C0, symBinAddr: 0x100008880, symSize: 0x40 }
  - { offsetInCU: 0x17E54, offset: 0x17E54, size: 0x8, addend: 0x0, symName: __ZNSt3__110unique_ptrINS_11__tree_nodeINS_12__value_typeIyPN3LOB5LimitEEEPvEENS_22__tree_node_destructorINS_9allocatorIS8_EEEEEC1B7v160006ILb1EvEEPS8_NS_16__dependent_typeINS_27__unique_ptr_deleter_sfinaeISC_EEXT_EE20__good_rval_ref_typeE, symObjAddr: 0x6100, symBinAddr: 0x1000088C0, symSize: 0x30 }
  - { offsetInCU: 0x17EA5, offset: 0x17EA5, size: 0x8, addend: 0x0, symName: __ZNSt3__116allocator_traitsINS_9allocatorINS_11__tree_nodeINS_12__value_typeIyPN3LOB5LimitEEEPvEEEEE9constructB7v160006INS_4pairIKyS6_EEJRSE_RS6_EvvEEvRSA_PT_DpOT0_, symObjAddr: 0x6130, symBinAddr: 0x1000088F0, symSize: 0x30 }
  - { offsetInCU: 0x17F0E, offset: 0x17F0E, size: 0x8, addend: 0x0, symName: __ZNKSt3__110unique_ptrINS_11__tree_nodeINS_12__value_typeIyPN3LOB5LimitEEEPvEENS_22__tree_node_destructorINS_9allocatorIS8_EEEEEptB7v160006Ev, symObjAddr: 0x6160, symBinAddr: 0x100008920, symSize: 0x20 }
  - { offsetInCU: 0x17F34, offset: 0x17F34, size: 0x8, addend: 0x0, symName: __ZNSt3__110unique_ptrINS_11__tree_nodeINS_12__value_typeIyPN3LOB5LimitEEEPvEENS_22__tree_node_destructorINS_9allocatorIS8_EEEEE11get_deleterB7v160006Ev, symObjAddr: 0x6180, symBinAddr: 0x100008940, symSize: 0x20 }
  - { offsetInCU: 0x17F5A, offset: 0x17F5A, size: 0x8, addend: 0x0, symName: __ZNSt3__19allocatorINS_11__tree_nodeINS_12__value_typeIyPN3LOB5LimitEEEPvEEE8allocateB7v160006Em, symObjAddr: 0x61A0, symBinAddr: 0x100008960, symSize: 0x50 }
  - { offsetInCU: 0x17F98, offset: 0x17F98, size: 0x8, addend: 0x0, symName: __ZNSt3__116allocator_traitsINS_9allocatorINS_11__tree_nodeINS_12__value_typeIyPN3LOB5LimitEEEPvEEEEE8max_sizeB7v160006ISA_vvEEmRKSA_, symObjAddr: 0x61F0, symBinAddr: 0x1000089B0, symSize: 0x30 }
  - { offsetInCU: 0x17FC4, offset: 0x17FC4, size: 0x8, addend: 0x0, symName: __ZNSt3__122__tree_node_destructorINS_9allocatorINS_11__tree_nodeINS_12__value_typeIyPN3LOB5LimitEEEPvEEEEEC2B7v160006ERSA_b, symObjAddr: 0x6220, symBinAddr: 0x1000089E0, symSize: 0x30 }
  - { offsetInCU: 0x1800C, offset: 0x1800C, size: 0x8, addend: 0x0, symName: __ZNSt3__110unique_ptrINS_11__tree_nodeINS_12__value_typeIyPN3LOB5LimitEEEPvEENS_22__tree_node_destructorINS_9allocatorIS8_EEEEEC2B7v160006ILb1EvEEPS8_NS_16__dependent_typeINS_27__unique_ptr_deleter_sfinaeISC_EEXT_EE20__good_rval_ref_typeE, symObjAddr: 0x6250, symBinAddr: 0x100008A10, symSize: 0x40 }
  - { offsetInCU: 0x1805D, offset: 0x1805D, size: 0x8, addend: 0x0, symName: __ZNSt3__117__compressed_pairIPNS_11__tree_nodeINS_12__value_typeIyPN3LOB5LimitEEEPvEENS_22__tree_node_destructorINS_9allocatorIS8_EEEEEC1B7v160006IRS9_SD_EEOT_OT0_, symObjAddr: 0x6290, symBinAddr: 0x100008A50, symSize: 0x30 }
  - { offsetInCU: 0x180B5, offset: 0x180B5, size: 0x8, addend: 0x0, symName: __ZNSt3__117__compressed_pairIPNS_11__tree_nodeINS_12__value_typeIyPN3LOB5LimitEEEPvEENS_22__tree_node_destructorINS_9allocatorIS8_EEEEEC2B7v160006IRS9_SD_EEOT_OT0_, symObjAddr: 0x62C0, symBinAddr: 0x100008A80, symSize: 0x40 }
  - { offsetInCU: 0x1810D, offset: 0x1810D, size: 0x8, addend: 0x0, symName: __ZNSt3__122__compressed_pair_elemIPNS_11__tree_nodeINS_12__value_typeIyPN3LOB5LimitEEEPvEELi0ELb0EEC2B7v160006IRS9_vEEOT_, symObjAddr: 0x6300, symBinAddr: 0x100008AC0, symSize: 0x20 }
  - { offsetInCU: 0x1814F, offset: 0x1814F, size: 0x8, addend: 0x0, symName: __ZNSt3__122__compressed_pair_elemINS_22__tree_node_destructorINS_9allocatorINS_11__tree_nodeINS_12__value_typeIyPN3LOB5LimitEEEPvEEEEEELi1ELb0EEC2B7v160006ISC_vEEOT_, symObjAddr: 0x6320, symBinAddr: 0x100008AE0, symSize: 0x30 }
  - { offsetInCU: 0x18191, offset: 0x18191, size: 0x8, addend: 0x0, symName: __ZNSt3__14pairIKyPN3LOB5LimitEEC1B7v160006IRS1_RS4_LPv0EEEOT_OT0_, symObjAddr: 0x6390, symBinAddr: 0x100008B50, symSize: 0x30 }
  - { offsetInCU: 0x181EF, offset: 0x181EF, size: 0x8, addend: 0x0, symName: __ZNSt3__14pairIKyPN3LOB5LimitEEC2B7v160006IRS1_RS4_LPv0EEEOT_OT0_, symObjAddr: 0x63C0, symBinAddr: 0x100008B80, symSize: 0x30 }
  - { offsetInCU: 0x1824D, offset: 0x1824D, size: 0x8, addend: 0x0, symName: __ZNKSt3__117__compressed_pairIPNS_11__tree_nodeINS_12__value_typeIyPN3LOB5LimitEEEPvEENS_22__tree_node_destructorINS_9allocatorIS8_EEEEE5firstB7v160006Ev, symObjAddr: 0x63F0, symBinAddr: 0x100008BB0, symSize: 0x20 }
  - { offsetInCU: 0x18273, offset: 0x18273, size: 0x8, addend: 0x0, symName: __ZNKSt3__122__compressed_pair_elemIPNS_11__tree_nodeINS_12__value_typeIyPN3LOB5LimitEEEPvEELi0ELb0EE5__getB7v160006Ev, symObjAddr: 0x6410, symBinAddr: 0x100008BD0, symSize: 0x10 }
  - { offsetInCU: 0x18299, offset: 0x18299, size: 0x8, addend: 0x0, symName: __ZNSt3__117__compressed_pairIPNS_11__tree_nodeINS_12__value_typeIyPN3LOB5LimitEEEPvEENS_22__tree_node_destructorINS_9allocatorIS8_EEEEE6secondB7v160006Ev, symObjAddr: 0x6420, symBinAddr: 0x100008BE0, symSize: 0x20 }
  - { offsetInCU: 0x182BF, offset: 0x182BF, size: 0x8, addend: 0x0, symName: __ZNSt3__122__compressed_pair_elemINS_22__tree_node_destructorINS_9allocatorINS_11__tree_nodeINS_12__value_typeIyPN3LOB5LimitEEEPvEEEEEELi1ELb0EE5__getB7v160006Ev, symObjAddr: 0x6440, symBinAddr: 0x100008C00, symSize: 0x10 }
  - { offsetInCU: 0x182E5, offset: 0x182E5, size: 0x8, addend: 0x0, symName: __ZNSt3__116__tree_node_baseIPvE12__set_parentB7v160006EPS2_, symObjAddr: 0x6820, symBinAddr: 0x100008FE0, symSize: 0x20 }
  - { offsetInCU: 0x1831A, offset: 0x1831A, size: 0x8, addend: 0x0, symName: __ZNSt3__117__compressed_pairIPNS_11__tree_nodeINS_12__value_typeIyPN3LOB5LimitEEEPvEENS_22__tree_node_destructorINS_9allocatorIS8_EEEEE5firstB7v160006Ev, symObjAddr: 0x6840, symBinAddr: 0x100009000, symSize: 0x20 }
  - { offsetInCU: 0x18340, offset: 0x18340, size: 0x8, addend: 0x0, symName: __ZNSt3__122__compressed_pair_elemIPNS_11__tree_nodeINS_12__value_typeIyPN3LOB5LimitEEEPvEELi0ELb0EE5__getB7v160006Ev, symObjAddr: 0x6860, symBinAddr: 0x100009020, symSize: 0x10 }
  - { offsetInCU: 0x18366, offset: 0x18366, size: 0x8, addend: 0x0, symName: __ZNSt3__110unique_ptrINS_11__tree_nodeINS_12__value_typeIyPN3LOB5LimitEEEPvEENS_22__tree_node_destructorINS_9allocatorIS8_EEEEED2B7v160006Ev, symObjAddr: 0x6870, symBinAddr: 0x100009030, symSize: 0x20 }
  - { offsetInCU: 0x18390, offset: 0x18390, size: 0x8, addend: 0x0, symName: __ZNSt3__110unique_ptrINS_11__tree_nodeINS_12__value_typeIyPN3LOB5LimitEEEPvEENS_22__tree_node_destructorINS_9allocatorIS8_EEEEE5resetB7v160006EPS8_, symObjAddr: 0x6890, symBinAddr: 0x100009050, symSize: 0x70 }
  - { offsetInCU: 0x183D4, offset: 0x183D4, size: 0x8, addend: 0x0, symName: __ZNSt3__122__tree_node_destructorINS_9allocatorINS_11__tree_nodeINS_12__value_typeIyPN3LOB5LimitEEEPvEEEEEclB7v160006EPS9_, symObjAddr: 0x6900, symBinAddr: 0x1000090C0, symSize: 0x80 }
  - { offsetInCU: 0x18409, offset: 0x18409, size: 0x8, addend: 0x0, symName: __ZNSt3__115__tree_iteratorINS_12__value_typeIyPN3LOB5LimitEEEPNS_11__tree_nodeIS5_PvEElEC2B7v160006ES9_, symObjAddr: 0x6980, symBinAddr: 0x100009140, symSize: 0x20 }
  - { offsetInCU: 0x18442, offset: 0x18442, size: 0x8, addend: 0x0, symName: __ZNSt3__14pairINS_15__tree_iteratorINS_12__value_typeIyPN3LOB5LimitEEEPNS_11__tree_nodeIS6_PvEElEEbEC2B7v160006ISB_RbLS8_0EEEOT_OT0_, symObjAddr: 0x69A0, symBinAddr: 0x100009160, symSize: 0x30 }
  - { offsetInCU: 0x184A0, offset: 0x184A0, size: 0x8, addend: 0x0, symName: __ZNSt3__14pairINS_14__map_iteratorINS_15__tree_iteratorINS_12__value_typeIyPN3LOB5LimitEEEPNS_11__tree_nodeIS7_PvEElEEEEbEC2B7v160006ISC_bLS9_0EEEONS0_IT_T0_EE, symObjAddr: 0x69D0, symBinAddr: 0x100009190, symSize: 0x50 }
  - { offsetInCU: 0x18505, offset: 0x18505, size: 0x8, addend: 0x0, symName: __ZNSt3__16__treeINS_12__value_typeIyPN3LOB5LimitEEENS_19__map_value_compareIyS5_NS_4lessIyEELb1EEENS_9allocatorIS5_EEE25__emplace_unique_key_argsIyJRKNS_21piecewise_construct_tENS_5tupleIJRKyEEENSH_IJEEEEEENS_4pairINS_15__tree_iteratorIS5_PNS_11__tree_nodeIS5_PvEElEEbEERKT_DpOT0_, symObjAddr: 0x6A20, symBinAddr: 0x1000091E0, symSize: 0x100 }
  - { offsetInCU: 0x185E4, offset: 0x185E4, size: 0x8, addend: 0x0, symName: __ZNSt3__16__treeINS_12__value_typeIyPN3LOB5LimitEEENS_19__map_value_compareIyS5_NS_4lessIyEELb1EEENS_9allocatorIS5_EEE16__construct_nodeIJRKNS_21piecewise_construct_tENS_5tupleIJRKyEEENSH_IJEEEEEENS_10unique_ptrINS_11__tree_nodeIS5_PvEENS_22__tree_node_destructorINSA_ISP_EEEEEEDpOT_, symObjAddr: 0x6B60, symBinAddr: 0x100009320, symSize: 0x110 }
  - { offsetInCU: 0x1866D, offset: 0x1866D, size: 0x8, addend: 0x0, symName: __ZNSt3__116allocator_traitsINS_9allocatorINS_11__tree_nodeINS_12__value_typeIyPN3LOB5LimitEEEPvEEEEE9constructB7v160006INS_4pairIKyS6_EEJRKNS_21piecewise_construct_tENS_5tupleIJRSE_EEENSJ_IJEEEEvvEEvRSA_PT_DpOT0_, symObjAddr: 0x6C70, symBinAddr: 0x100009430, symSize: 0x40 }
  - { offsetInCU: 0x186EA, offset: 0x186EA, size: 0x8, addend: 0x0, symName: __ZNSt3__14pairIKyPN3LOB5LimitEEC1B7v160006IJRS1_EJEEENS_21piecewise_construct_tENS_5tupleIJDpT_EEENS9_IJDpT0_EEE, symObjAddr: 0x6D00, symBinAddr: 0x1000094C0, symSize: 0x40 }
  - { offsetInCU: 0x18751, offset: 0x18751, size: 0x8, addend: 0x0, symName: __ZNSt3__14pairIKyPN3LOB5LimitEEC1B7v160006IJRS1_EJEJLm0EEJEEENS_21piecewise_construct_tERNS_5tupleIJDpT_EEERNS9_IJDpT0_EEENS_15__tuple_indicesIJXspT1_EEEENSI_IJXspT2_EEEE, symObjAddr: 0x6D40, symBinAddr: 0x100009500, symSize: 0x30 }
  - { offsetInCU: 0x187E1, offset: 0x187E1, size: 0x8, addend: 0x0, symName: __ZNSt3__14pairIKyPN3LOB5LimitEEC2B7v160006IJRS1_EJEJLm0EEJEEENS_21piecewise_construct_tERNS_5tupleIJDpT_EEERNS9_IJDpT0_EEENS_15__tuple_indicesIJXspT1_EEEENSI_IJXspT2_EEEE, symObjAddr: 0x6D70, symBinAddr: 0x100009530, symSize: 0x40 }
  - { offsetInCU: 0x18871, offset: 0x18871, size: 0x8, addend: 0x0, symName: __ZNSt3__112__tuple_leafILm0ERKyLb0EE3getB7v160006Ev, symObjAddr: 0x6DD0, symBinAddr: 0x100009590, symSize: 0x20 }
  - { offsetInCU: 0x18897, offset: 0x18897, size: 0x8, addend: 0x0, symName: __ZNSt3__15tupleIJRKyEEC1B7v160006INS_4_AndELi0EEES2_, symObjAddr: 0x6DF0, symBinAddr: 0x1000095B0, symSize: 0x30 }
  - { offsetInCU: 0x188DF, offset: 0x188DF, size: 0x8, addend: 0x0, symName: __ZNSt3__15tupleIJRKyEEC2B7v160006INS_4_AndELi0EEES2_, symObjAddr: 0x6E20, symBinAddr: 0x1000095E0, symSize: 0x30 }
  - { offsetInCU: 0x18927, offset: 0x18927, size: 0x8, addend: 0x0, symName: __ZNSt3__112__tuple_implINS_15__tuple_indicesIJLm0EEEEJRKyEEC1B7v160006IJLm0EEJS4_EJEJEJS4_EEENS1_IJXspT_EEEENS_13__tuple_typesIJDpT0_EEENS1_IJXspT1_EEEENS8_IJDpT2_EEEDpOT3_, symObjAddr: 0x6E50, symBinAddr: 0x100009610, symSize: 0x30 }
  - { offsetInCU: 0x189BC, offset: 0x189BC, size: 0x8, addend: 0x0, symName: __ZNSt3__112__tuple_implINS_15__tuple_indicesIJLm0EEEEJRKyEEC2B7v160006IJLm0EEJS4_EJEJEJS4_EEENS1_IJXspT_EEEENS_13__tuple_typesIJDpT0_EEENS1_IJXspT1_EEEENS8_IJDpT2_EEEDpOT3_, symObjAddr: 0x6E80, symBinAddr: 0x100009640, symSize: 0x30 }
  - { offsetInCU: 0x18A51, offset: 0x18A51, size: 0x8, addend: 0x0, symName: __ZNSt3__112__tuple_leafILm0ERKyLb0EEC2B7v160006IS2_vEEOT_, symObjAddr: 0x6EB0, symBinAddr: 0x100009670, symSize: 0x20 }
  - { offsetInCU: 0x18A94, offset: 0x18A94, size: 0x8, addend: 0x0, symName: __ZNSt3__14listIPN3LOB5OrderENS_9allocatorIS3_EEE15__allocate_nodeB7v160006ERNS4_INS_11__list_nodeIS3_PvEEEE, symObjAddr: 0x6ED0, symBinAddr: 0x100009690, symSize: 0x80 }
  - { offsetInCU: 0x18ADD, offset: 0x18ADD, size: 0x8, addend: 0x0, symName: __ZNSt3__116allocator_traitsINS_9allocatorINS_11__list_nodeIPN3LOB5OrderEPvEEEEE9constructB7v160006IS5_JRKS5_EvvEEvRS8_PT_DpOT0_, symObjAddr: 0x6F50, symBinAddr: 0x100009710, symSize: 0x30 }
  - { offsetInCU: 0x18B32, offset: 0x18B32, size: 0x8, addend: 0x0, symName: __ZNKSt3__110unique_ptrINS_11__list_nodeIPN3LOB5OrderEPvEENS_22__allocator_destructorINS_9allocatorIS6_EEEEEptB7v160006Ev, symObjAddr: 0x6F80, symBinAddr: 0x100009740, symSize: 0x20 }
  - { offsetInCU: 0x18B58, offset: 0x18B58, size: 0x8, addend: 0x0, symName: __ZNSt3__14listIPN3LOB5OrderENS_9allocatorIS3_EEE20__link_nodes_at_backEPNS_16__list_node_baseIS3_PvEESA_, symObjAddr: 0x6FA0, symBinAddr: 0x100009760, symSize: 0x60 }
  - { offsetInCU: 0x18B9E, offset: 0x18B9E, size: 0x8, addend: 0x0, symName: __ZNKSt3__110unique_ptrINS_11__list_nodeIPN3LOB5OrderEPvEENS_22__allocator_destructorINS_9allocatorIS6_EEEEE3getB7v160006Ev, symObjAddr: 0x7000, symBinAddr: 0x1000097C0, symSize: 0x20 }
  - { offsetInCU: 0x18BC4, offset: 0x18BC4, size: 0x8, addend: 0x0, symName: __ZNSt3__111__list_nodeIPN3LOB5OrderEPvE9__as_linkB7v160006Ev, symObjAddr: 0x7020, symBinAddr: 0x1000097E0, symSize: 0x20 }
  - { offsetInCU: 0x18BEA, offset: 0x18BEA, size: 0x8, addend: 0x0, symName: __ZNSt3__110unique_ptrINS_11__list_nodeIPN3LOB5OrderEPvEENS_22__allocator_destructorINS_9allocatorIS6_EEEEE7releaseB7v160006Ev, symObjAddr: 0x7040, symBinAddr: 0x100009800, symSize: 0x40 }
  - { offsetInCU: 0x18C1F, offset: 0x18C1F, size: 0x8, addend: 0x0, symName: __ZNSt3__110unique_ptrINS_11__list_nodeIPN3LOB5OrderEPvEENS_22__allocator_destructorINS_9allocatorIS6_EEEEED1B7v160006Ev, symObjAddr: 0x7080, symBinAddr: 0x100009840, symSize: 0x20 }
  - { offsetInCU: 0x18C49, offset: 0x18C49, size: 0x8, addend: 0x0, symName: __ZNSt3__116allocator_traitsINS_9allocatorINS_11__list_nodeIPN3LOB5OrderEPvEEEEE8allocateB7v160006ERS8_m, symObjAddr: 0x70A0, symBinAddr: 0x100009860, symSize: 0x30 }
  - { offsetInCU: 0x18C7C, offset: 0x18C7C, size: 0x8, addend: 0x0, symName: __ZNSt3__122__allocator_destructorINS_9allocatorINS_11__list_nodeIPN3LOB5OrderEPvEEEEEC1B7v160006ERS8_m, symObjAddr: 0x70D0, symBinAddr: 0x100009890, symSize: 0x30 }
  - { offsetInCU: 0x18CC7, offset: 0x18CC7, size: 0x8, addend: 0x0, symName: __ZNSt3__110unique_ptrINS_11__list_nodeIPN3LOB5OrderEPvEENS_22__allocator_destructorINS_9allocatorIS6_EEEEEC1B7v160006ILb1EvEEPS6_NS_16__dependent_typeINS_27__unique_ptr_deleter_sfinaeISA_EEXT_EE20__good_rval_ref_typeE, symObjAddr: 0x7100, symBinAddr: 0x1000098C0, symSize: 0x30 }
  - { offsetInCU: 0x18D18, offset: 0x18D18, size: 0x8, addend: 0x0, symName: __ZNSt3__19allocatorINS_11__list_nodeIPN3LOB5OrderEPvEEE8allocateB7v160006Em, symObjAddr: 0x7130, symBinAddr: 0x1000098F0, symSize: 0x50 }
  - { offsetInCU: 0x18D56, offset: 0x18D56, size: 0x8, addend: 0x0, symName: __ZNSt3__116allocator_traitsINS_9allocatorINS_11__list_nodeIPN3LOB5OrderEPvEEEEE8max_sizeB7v160006IS8_vvEEmRKS8_, symObjAddr: 0x7180, symBinAddr: 0x100009940, symSize: 0x30 }
  - { offsetInCU: 0x18D82, offset: 0x18D82, size: 0x8, addend: 0x0, symName: __ZNSt3__122__allocator_destructorINS_9allocatorINS_11__list_nodeIPN3LOB5OrderEPvEEEEEC2B7v160006ERS8_m, symObjAddr: 0x71B0, symBinAddr: 0x100009970, symSize: 0x30 }
  - { offsetInCU: 0x18DC8, offset: 0x18DC8, size: 0x8, addend: 0x0, symName: __ZNSt3__110unique_ptrINS_11__list_nodeIPN3LOB5OrderEPvEENS_22__allocator_destructorINS_9allocatorIS6_EEEEEC2B7v160006ILb1EvEEPS6_NS_16__dependent_typeINS_27__unique_ptr_deleter_sfinaeISA_EEXT_EE20__good_rval_ref_typeE, symObjAddr: 0x71E0, symBinAddr: 0x1000099A0, symSize: 0x40 }
  - { offsetInCU: 0x18E19, offset: 0x18E19, size: 0x8, addend: 0x0, symName: __ZNSt3__117__compressed_pairIPNS_11__list_nodeIPN3LOB5OrderEPvEENS_22__allocator_destructorINS_9allocatorIS6_EEEEEC1B7v160006IRS7_SB_EEOT_OT0_, symObjAddr: 0x7220, symBinAddr: 0x1000099E0, symSize: 0x30 }
  - { offsetInCU: 0x18E71, offset: 0x18E71, size: 0x8, addend: 0x0, symName: __ZNSt3__117__compressed_pairIPNS_11__list_nodeIPN3LOB5OrderEPvEENS_22__allocator_destructorINS_9allocatorIS6_EEEEEC2B7v160006IRS7_SB_EEOT_OT0_, symObjAddr: 0x7250, symBinAddr: 0x100009A10, symSize: 0x40 }
  - { offsetInCU: 0x18EC9, offset: 0x18EC9, size: 0x8, addend: 0x0, symName: __ZNSt3__122__compressed_pair_elemIPNS_11__list_nodeIPN3LOB5OrderEPvEELi0ELb0EEC2B7v160006IRS7_vEEOT_, symObjAddr: 0x7290, symBinAddr: 0x100009A50, symSize: 0x20 }
  - { offsetInCU: 0x18F0B, offset: 0x18F0B, size: 0x8, addend: 0x0, symName: __ZNSt3__122__compressed_pair_elemINS_22__allocator_destructorINS_9allocatorINS_11__list_nodeIPN3LOB5OrderEPvEEEEEELi1ELb0EEC2B7v160006ISA_vEEOT_, symObjAddr: 0x72B0, symBinAddr: 0x100009A70, symSize: 0x30 }
  - { offsetInCU: 0x18F4D, offset: 0x18F4D, size: 0x8, addend: 0x0, symName: __ZNKSt3__117__compressed_pairIPNS_11__list_nodeIPN3LOB5OrderEPvEENS_22__allocator_destructorINS_9allocatorIS6_EEEEE5firstB7v160006Ev, symObjAddr: 0x7310, symBinAddr: 0x100009AD0, symSize: 0x20 }
  - { offsetInCU: 0x18F73, offset: 0x18F73, size: 0x8, addend: 0x0, symName: __ZNKSt3__122__compressed_pair_elemIPNS_11__list_nodeIPN3LOB5OrderEPvEELi0ELb0EE5__getB7v160006Ev, symObjAddr: 0x7330, symBinAddr: 0x100009AF0, symSize: 0x10 }
  - { offsetInCU: 0x18F99, offset: 0x18F99, size: 0x8, addend: 0x0, symName: __ZNSt3__117__compressed_pairIPNS_11__list_nodeIPN3LOB5OrderEPvEENS_22__allocator_destructorINS_9allocatorIS6_EEEEE5firstB7v160006Ev, symObjAddr: 0x7340, symBinAddr: 0x100009B00, symSize: 0x20 }
  - { offsetInCU: 0x18FBF, offset: 0x18FBF, size: 0x8, addend: 0x0, symName: __ZNSt3__122__compressed_pair_elemIPNS_11__list_nodeIPN3LOB5OrderEPvEELi0ELb0EE5__getB7v160006Ev, symObjAddr: 0x7360, symBinAddr: 0x100009B20, symSize: 0x10 }
  - { offsetInCU: 0x18FE5, offset: 0x18FE5, size: 0x8, addend: 0x0, symName: __ZNSt3__110unique_ptrINS_11__list_nodeIPN3LOB5OrderEPvEENS_22__allocator_destructorINS_9allocatorIS6_EEEEED2B7v160006Ev, symObjAddr: 0x7370, symBinAddr: 0x100009B30, symSize: 0x20 }
  - { offsetInCU: 0x1900F, offset: 0x1900F, size: 0x8, addend: 0x0, symName: __ZNSt3__110unique_ptrINS_11__list_nodeIPN3LOB5OrderEPvEENS_22__allocator_destructorINS_9allocatorIS6_EEEEE5resetB7v160006EPS6_, symObjAddr: 0x7390, symBinAddr: 0x100009B50, symSize: 0x70 }
  - { offsetInCU: 0x19053, offset: 0x19053, size: 0x8, addend: 0x0, symName: __ZNSt3__117__compressed_pairIPNS_11__list_nodeIPN3LOB5OrderEPvEENS_22__allocator_destructorINS_9allocatorIS6_EEEEE6secondB7v160006Ev, symObjAddr: 0x7400, symBinAddr: 0x100009BC0, symSize: 0x20 }
  - { offsetInCU: 0x19079, offset: 0x19079, size: 0x8, addend: 0x0, symName: __ZNSt3__122__allocator_destructorINS_9allocatorINS_11__list_nodeIPN3LOB5OrderEPvEEEEEclB7v160006EPS7_, symObjAddr: 0x7420, symBinAddr: 0x100009BE0, symSize: 0x30 }
  - { offsetInCU: 0x190AD, offset: 0x190AD, size: 0x8, addend: 0x0, symName: __ZNSt3__122__compressed_pair_elemINS_22__allocator_destructorINS_9allocatorINS_11__list_nodeIPN3LOB5OrderEPvEEEEEELi1ELb0EE5__getB7v160006Ev, symObjAddr: 0x7450, symBinAddr: 0x100009C10, symSize: 0x10 }
  - { offsetInCU: 0x190D3, offset: 0x190D3, size: 0x8, addend: 0x0, symName: __ZNSt3__112__hash_tableINS_17__hash_value_typeIiNS_15__list_iteratorIPN3LOB5OrderEPvEEEENS_22__unordered_map_hasherIiS8_NS_4hashIiEENS_8equal_toIiEELb1EEENS_21__unordered_map_equalIiS8_SD_SB_Lb1EEENS_9allocatorIS8_EEE16__emplace_uniqueB7v160006IJRKyS7_EEENS_4pairINS_15__hash_iteratorIPNS_11__hash_nodeIS8_S6_EEEEbEEDpOT_, symObjAddr: 0x7460, symBinAddr: 0x100009C20, symSize: 0x40 }
  - { offsetInCU: 0x19127, offset: 0x19127, size: 0x8, addend: 0x0, symName: __ZNSt3__14pairINS_19__hash_map_iteratorINS_15__hash_iteratorIPNS_11__hash_nodeINS_17__hash_value_typeIiNS_15__list_iteratorIPN3LOB5OrderEPvEEEES9_EEEEEEbEC1B7v160006ISE_bLS9_0EEEONS0_IT_T0_EE, symObjAddr: 0x74A0, symBinAddr: 0x100009C60, symSize: 0x30 }
  - { offsetInCU: 0x19178, offset: 0x19178, size: 0x8, addend: 0x0, symName: __ZNSt3__112__hash_tableINS_17__hash_value_typeIiNS_15__list_iteratorIPN3LOB5OrderEPvEEEENS_22__unordered_map_hasherIiS8_NS_4hashIiEENS_8equal_toIiEELb1EEENS_21__unordered_map_equalIiS8_SD_SB_Lb1EEENS_9allocatorIS8_EEE21__emplace_unique_implIJRKyS7_EEENS_4pairINS_15__hash_iteratorIPNS_11__hash_nodeIS8_S6_EEEEbEEDpOT_, symObjAddr: 0x74D0, symBinAddr: 0x100009C90, symSize: 0xC0 }
  - { offsetInCU: 0x191EC, offset: 0x191EC, size: 0x8, addend: 0x0, symName: __ZNSt3__112__hash_tableINS_17__hash_value_typeIiNS_15__list_iteratorIPN3LOB5OrderEPvEEEENS_22__unordered_map_hasherIiS8_NS_4hashIiEENS_8equal_toIiEELb1EEENS_21__unordered_map_equalIiS8_SD_SB_Lb1EEENS_9allocatorIS8_EEE16__construct_nodeIJRKyS7_EEENS_10unique_ptrINS_11__hash_nodeIS8_S6_EENS_22__hash_node_destructorINSH_ISP_EEEEEEDpOT_, symObjAddr: 0x7590, symBinAddr: 0x100009D50, symSize: 0x170 }
  - { offsetInCU: 0x19261, offset: 0x19261, size: 0x8, addend: 0x0, symName: __ZNSt3__112__hash_tableINS_17__hash_value_typeIiNS_15__list_iteratorIPN3LOB5OrderEPvEEEENS_22__unordered_map_hasherIiS8_NS_4hashIiEENS_8equal_toIiEELb1EEENS_21__unordered_map_equalIiS8_SD_SB_Lb1EEENS_9allocatorIS8_EEE20__node_insert_uniqueEPNS_11__hash_nodeIS8_S6_EE, symObjAddr: 0x7700, symBinAddr: 0x100009EC0, symSize: 0xC0 }
  - { offsetInCU: 0x192B6, offset: 0x192B6, size: 0x8, addend: 0x0, symName: __ZNKSt3__110unique_ptrINS_11__hash_nodeINS_17__hash_value_typeIiNS_15__list_iteratorIPN3LOB5OrderEPvEEEES7_EENS_22__hash_node_destructorINS_9allocatorISA_EEEEE3getB7v160006Ev, symObjAddr: 0x77C0, symBinAddr: 0x100009F80, symSize: 0x20 }
  - { offsetInCU: 0x192DC, offset: 0x192DC, size: 0x8, addend: 0x0, symName: __ZNSt3__110unique_ptrINS_11__hash_nodeINS_17__hash_value_typeIiNS_15__list_iteratorIPN3LOB5OrderEPvEEEES7_EENS_22__hash_node_destructorINS_9allocatorISA_EEEEE7releaseB7v160006Ev, symObjAddr: 0x77E0, symBinAddr: 0x100009FA0, symSize: 0x40 }
  - { offsetInCU: 0x19311, offset: 0x19311, size: 0x8, addend: 0x0, symName: __ZNSt3__110unique_ptrINS_11__hash_nodeINS_17__hash_value_typeIiNS_15__list_iteratorIPN3LOB5OrderEPvEEEES7_EENS_22__hash_node_destructorINS_9allocatorISA_EEEEED1B7v160006Ev, symObjAddr: 0x7820, symBinAddr: 0x100009FE0, symSize: 0x20 }
  - { offsetInCU: 0x1933B, offset: 0x1933B, size: 0x8, addend: 0x0, symName: __ZNSt3__112__hash_tableINS_17__hash_value_typeIiNS_15__list_iteratorIPN3LOB5OrderEPvEEEENS_22__unordered_map_hasherIiS8_NS_4hashIiEENS_8equal_toIiEELb1EEENS_21__unordered_map_equalIiS8_SD_SB_Lb1EEENS_9allocatorIS8_EEE12__node_allocB7v160006Ev, symObjAddr: 0x7840, symBinAddr: 0x10000A000, symSize: 0x20 }
  - { offsetInCU: 0x19361, offset: 0x19361, size: 0x8, addend: 0x0, symName: __ZNSt3__116allocator_traitsINS_9allocatorINS_11__hash_nodeINS_17__hash_value_typeIiNS_15__list_iteratorIPN3LOB5OrderEPvEEEES8_EEEEE8allocateB7v160006ERSC_m, symObjAddr: 0x7860, symBinAddr: 0x10000A020, symSize: 0x30 }
  - { offsetInCU: 0x19394, offset: 0x19394, size: 0x8, addend: 0x0, symName: __ZNSt3__122__hash_node_destructorINS_9allocatorINS_11__hash_nodeINS_17__hash_value_typeIiNS_15__list_iteratorIPN3LOB5OrderEPvEEEES8_EEEEEC1B7v160006ERSC_b, symObjAddr: 0x7890, symBinAddr: 0x10000A050, symSize: 0x40 }
  - { offsetInCU: 0x193E1, offset: 0x193E1, size: 0x8, addend: 0x0, symName: __ZNSt3__110unique_ptrINS_11__hash_nodeINS_17__hash_value_typeIiNS_15__list_iteratorIPN3LOB5OrderEPvEEEES7_EENS_22__hash_node_destructorINS_9allocatorISA_EEEEEC1B7v160006ILb1EvEEPSA_NS_16__dependent_typeINS_27__unique_ptr_deleter_sfinaeISE_EEXT_EE20__good_rval_ref_typeE, symObjAddr: 0x78D0, symBinAddr: 0x10000A090, symSize: 0x30 }
  - { offsetInCU: 0x19432, offset: 0x19432, size: 0x8, addend: 0x0, symName: __ZNSt3__116allocator_traitsINS_9allocatorINS_11__hash_nodeINS_17__hash_value_typeIiNS_15__list_iteratorIPN3LOB5OrderEPvEEEES8_EEEEE9constructB7v160006INS_4pairIKiS9_EEJRKyS9_EvvEEvRSC_PT_DpOT0_, symObjAddr: 0x7900, symBinAddr: 0x10000A0C0, symSize: 0x30 }
  - { offsetInCU: 0x1949B, offset: 0x1949B, size: 0x8, addend: 0x0, symName: __ZNSt3__122__hash_key_value_typesINS_17__hash_value_typeIiNS_15__list_iteratorIPN3LOB5OrderEPvEEEEE9__get_ptrB7v160006ERS8_, symObjAddr: 0x7930, symBinAddr: 0x10000A0F0, symSize: 0x20 }
  - { offsetInCU: 0x194BE, offset: 0x194BE, size: 0x8, addend: 0x0, symName: __ZNKSt3__110unique_ptrINS_11__hash_nodeINS_17__hash_value_typeIiNS_15__list_iteratorIPN3LOB5OrderEPvEEEES7_EENS_22__hash_node_destructorINS_9allocatorISA_EEEEEptB7v160006Ev, symObjAddr: 0x7950, symBinAddr: 0x10000A110, symSize: 0x20 }
  - { offsetInCU: 0x194E4, offset: 0x194E4, size: 0x8, addend: 0x0, symName: __ZNSt3__110unique_ptrINS_11__hash_nodeINS_17__hash_value_typeIiNS_15__list_iteratorIPN3LOB5OrderEPvEEEES7_EENS_22__hash_node_destructorINS_9allocatorISA_EEEEE11get_deleterB7v160006Ev, symObjAddr: 0x7970, symBinAddr: 0x10000A130, symSize: 0x20 }
  - { offsetInCU: 0x1950A, offset: 0x1950A, size: 0x8, addend: 0x0, symName: __ZNSt3__112__hash_tableINS_17__hash_value_typeIiNS_15__list_iteratorIPN3LOB5OrderEPvEEEENS_22__unordered_map_hasherIiS8_NS_4hashIiEENS_8equal_toIiEELb1EEENS_21__unordered_map_equalIiS8_SD_SB_Lb1EEENS_9allocatorIS8_EEE13hash_functionB7v160006Ev, symObjAddr: 0x7990, symBinAddr: 0x10000A150, symSize: 0x20 }
  - { offsetInCU: 0x19530, offset: 0x19530, size: 0x8, addend: 0x0, symName: __ZNKSt3__122__unordered_map_hasherIiNS_17__hash_value_typeIiNS_15__list_iteratorIPN3LOB5OrderEPvEEEENS_4hashIiEENS_8equal_toIiEELb1EEclB7v160006ERKS8_, symObjAddr: 0x79B0, symBinAddr: 0x10000A170, symSize: 0x40 }
  - { offsetInCU: 0x19565, offset: 0x19565, size: 0x8, addend: 0x0, symName: __ZNSt3__117__compressed_pairINS_16__hash_node_baseIPNS_11__hash_nodeINS_17__hash_value_typeIiNS_15__list_iteratorIPN3LOB5OrderEPvEEEES8_EEEENS_9allocatorISB_EEE6secondB7v160006Ev, symObjAddr: 0x79F0, symBinAddr: 0x10000A1B0, symSize: 0x20 }
  - { offsetInCU: 0x1958B, offset: 0x1958B, size: 0x8, addend: 0x0, symName: __ZNSt3__122__compressed_pair_elemINS_9allocatorINS_11__hash_nodeINS_17__hash_value_typeIiNS_15__list_iteratorIPN3LOB5OrderEPvEEEES8_EEEELi1ELb1EE5__getB7v160006Ev, symObjAddr: 0x7A10, symBinAddr: 0x10000A1D0, symSize: 0x10 }
  - { offsetInCU: 0x195B1, offset: 0x195B1, size: 0x8, addend: 0x0, symName: __ZNSt3__19allocatorINS_11__hash_nodeINS_17__hash_value_typeIiNS_15__list_iteratorIPN3LOB5OrderEPvEEEES7_EEE8allocateB7v160006Em, symObjAddr: 0x7A20, symBinAddr: 0x10000A1E0, symSize: 0x50 }
  - { offsetInCU: 0x195EF, offset: 0x195EF, size: 0x8, addend: 0x0, symName: __ZNSt3__116allocator_traitsINS_9allocatorINS_11__hash_nodeINS_17__hash_value_typeIiNS_15__list_iteratorIPN3LOB5OrderEPvEEEES8_EEEEE8max_sizeB7v160006ISC_vvEEmRKSC_, symObjAddr: 0x7A70, symBinAddr: 0x10000A230, symSize: 0x20 }
  - { offsetInCU: 0x1961B, offset: 0x1961B, size: 0x8, addend: 0x0, symName: __ZNSt3__122__hash_node_destructorINS_9allocatorINS_11__hash_nodeINS_17__hash_value_typeIiNS_15__list_iteratorIPN3LOB5OrderEPvEEEES8_EEEEEC2B7v160006ERSC_b, symObjAddr: 0x7A90, symBinAddr: 0x10000A250, symSize: 0x30 }
  - { offsetInCU: 0x19663, offset: 0x19663, size: 0x8, addend: 0x0, symName: __ZNSt3__110unique_ptrINS_11__hash_nodeINS_17__hash_value_typeIiNS_15__list_iteratorIPN3LOB5OrderEPvEEEES7_EENS_22__hash_node_destructorINS_9allocatorISA_EEEEEC2B7v160006ILb1EvEEPSA_NS_16__dependent_typeINS_27__unique_ptr_deleter_sfinaeISE_EEXT_EE20__good_rval_ref_typeE, symObjAddr: 0x7AC0, symBinAddr: 0x10000A280, symSize: 0x40 }
  - { offsetInCU: 0x196B4, offset: 0x196B4, size: 0x8, addend: 0x0, symName: __ZNSt3__117__compressed_pairIPNS_11__hash_nodeINS_17__hash_value_typeIiNS_15__list_iteratorIPN3LOB5OrderEPvEEEES7_EENS_22__hash_node_destructorINS_9allocatorISA_EEEEEC1B7v160006IRSB_SF_EEOT_OT0_, symObjAddr: 0x7B00, symBinAddr: 0x10000A2C0, symSize: 0x30 }
  - { offsetInCU: 0x1970C, offset: 0x1970C, size: 0x8, addend: 0x0, symName: __ZNSt3__117__compressed_pairIPNS_11__hash_nodeINS_17__hash_value_typeIiNS_15__list_iteratorIPN3LOB5OrderEPvEEEES7_EENS_22__hash_node_destructorINS_9allocatorISA_EEEEEC2B7v160006IRSB_SF_EEOT_OT0_, symObjAddr: 0x7B30, symBinAddr: 0x10000A2F0, symSize: 0x40 }
  - { offsetInCU: 0x19764, offset: 0x19764, size: 0x8, addend: 0x0, symName: __ZNSt3__122__compressed_pair_elemIPNS_11__hash_nodeINS_17__hash_value_typeIiNS_15__list_iteratorIPN3LOB5OrderEPvEEEES7_EELi0ELb0EEC2B7v160006IRSB_vEEOT_, symObjAddr: 0x7B70, symBinAddr: 0x10000A330, symSize: 0x20 }
  - { offsetInCU: 0x197A6, offset: 0x197A6, size: 0x8, addend: 0x0, symName: __ZNSt3__122__compressed_pair_elemINS_22__hash_node_destructorINS_9allocatorINS_11__hash_nodeINS_17__hash_value_typeIiNS_15__list_iteratorIPN3LOB5OrderEPvEEEES9_EEEEEELi1ELb0EEC2B7v160006ISE_vEEOT_, symObjAddr: 0x7B90, symBinAddr: 0x10000A350, symSize: 0x30 }
  - { offsetInCU: 0x197E8, offset: 0x197E8, size: 0x8, addend: 0x0, symName: __ZNSt3__14pairIKiNS_15__list_iteratorIPN3LOB5OrderEPvEEEC1B7v160006IRKyS7_LS6_0EEEOT_OT0_, symObjAddr: 0x7C00, symBinAddr: 0x10000A3C0, symSize: 0x30 }
  - { offsetInCU: 0x19846, offset: 0x19846, size: 0x8, addend: 0x0, symName: __ZNSt3__14pairIKiNS_15__list_iteratorIPN3LOB5OrderEPvEEEC2B7v160006IRKyS7_LS6_0EEEOT_OT0_, symObjAddr: 0x7C30, symBinAddr: 0x10000A3F0, symSize: 0x30 }
  - { offsetInCU: 0x198A4, offset: 0x198A4, size: 0x8, addend: 0x0, symName: __ZNSt3__117__hash_value_typeIiNS_15__list_iteratorIPN3LOB5OrderEPvEEE11__get_valueB7v160006Ev, symObjAddr: 0x7C60, symBinAddr: 0x10000A420, symSize: 0x20 }
  - { offsetInCU: 0x198CA, offset: 0x198CA, size: 0x8, addend: 0x0, symName: __ZNKSt3__117__compressed_pairIPNS_11__hash_nodeINS_17__hash_value_typeIiNS_15__list_iteratorIPN3LOB5OrderEPvEEEES7_EENS_22__hash_node_destructorINS_9allocatorISA_EEEEE5firstB7v160006Ev, symObjAddr: 0x7CB0, symBinAddr: 0x10000A470, symSize: 0x20 }
  - { offsetInCU: 0x198F0, offset: 0x198F0, size: 0x8, addend: 0x0, symName: __ZNKSt3__122__compressed_pair_elemIPNS_11__hash_nodeINS_17__hash_value_typeIiNS_15__list_iteratorIPN3LOB5OrderEPvEEEES7_EELi0ELb0EE5__getB7v160006Ev, symObjAddr: 0x7CD0, symBinAddr: 0x10000A490, symSize: 0x10 }
  - { offsetInCU: 0x19916, offset: 0x19916, size: 0x8, addend: 0x0, symName: __ZNSt3__117__compressed_pairIPNS_11__hash_nodeINS_17__hash_value_typeIiNS_15__list_iteratorIPN3LOB5OrderEPvEEEES7_EENS_22__hash_node_destructorINS_9allocatorISA_EEEEE6secondB7v160006Ev, symObjAddr: 0x7CE0, symBinAddr: 0x10000A4A0, symSize: 0x20 }
  - { offsetInCU: 0x1993C, offset: 0x1993C, size: 0x8, addend: 0x0, symName: __ZNSt3__122__compressed_pair_elemINS_22__hash_node_destructorINS_9allocatorINS_11__hash_nodeINS_17__hash_value_typeIiNS_15__list_iteratorIPN3LOB5OrderEPvEEEES9_EEEEEELi1ELb0EE5__getB7v160006Ev, symObjAddr: 0x7D00, symBinAddr: 0x10000A4C0, symSize: 0x10 }
  - { offsetInCU: 0x19962, offset: 0x19962, size: 0x8, addend: 0x0, symName: __ZNSt3__117__compressed_pairImNS_22__unordered_map_hasherIiNS_17__hash_value_typeIiNS_15__list_iteratorIPN3LOB5OrderEPvEEEENS_4hashIiEENS_8equal_toIiEELb1EEEE6secondB7v160006Ev, symObjAddr: 0x7D10, symBinAddr: 0x10000A4D0, symSize: 0x20 }
  - { offsetInCU: 0x19988, offset: 0x19988, size: 0x8, addend: 0x0, symName: __ZNSt3__122__compressed_pair_elemINS_22__unordered_map_hasherIiNS_17__hash_value_typeIiNS_15__list_iteratorIPN3LOB5OrderEPvEEEENS_4hashIiEENS_8equal_toIiEELb1EEELi1ELb1EE5__getB7v160006Ev, symObjAddr: 0x7D30, symBinAddr: 0x10000A4F0, symSize: 0x10 }
  - { offsetInCU: 0x199AE, offset: 0x199AE, size: 0x8, addend: 0x0, symName: __ZNKSt3__14hashIiEclB7v160006Ei, symObjAddr: 0x7D40, symBinAddr: 0x10000A500, symSize: 0x20 }
  - { offsetInCU: 0x199E3, offset: 0x199E3, size: 0x8, addend: 0x0, symName: __ZNKSt3__117__hash_value_typeIiNS_15__list_iteratorIPN3LOB5OrderEPvEEE11__get_valueB7v160006Ev, symObjAddr: 0x7D60, symBinAddr: 0x10000A520, symSize: 0x20 }
  - { offsetInCU: 0x19A09, offset: 0x19A09, size: 0x8, addend: 0x0, symName: __ZNSt3__112__hash_tableINS_17__hash_value_typeIiNS_15__list_iteratorIPN3LOB5OrderEPvEEEENS_22__unordered_map_hasherIiS8_NS_4hashIiEENS_8equal_toIiEELb1EEENS_21__unordered_map_equalIiS8_SD_SB_Lb1EEENS_9allocatorIS8_EEE28__node_insert_unique_prepareB7v160006EmRS8_, symObjAddr: 0x7DB0, symBinAddr: 0x10000A570, symSize: 0x2D0 }
  - { offsetInCU: 0x19A8A, offset: 0x19A8A, size: 0x8, addend: 0x0, symName: __ZNKSt3__116__hash_node_baseIPNS_11__hash_nodeINS_17__hash_value_typeIiNS_15__list_iteratorIPN3LOB5OrderEPvEEEES7_EEE6__hashB7v160006Ev, symObjAddr: 0x8080, symBinAddr: 0x10000A840, symSize: 0x20 }
  - { offsetInCU: 0x19AB0, offset: 0x19AB0, size: 0x8, addend: 0x0, symName: __ZNSt3__112__hash_tableINS_17__hash_value_typeIiNS_15__list_iteratorIPN3LOB5OrderEPvEEEENS_22__unordered_map_hasherIiS8_NS_4hashIiEENS_8equal_toIiEELb1EEENS_21__unordered_map_equalIiS8_SD_SB_Lb1EEENS_9allocatorIS8_EEE28__node_insert_unique_performB7v160006EPNS_11__hash_nodeIS8_S6_EE, symObjAddr: 0x80A0, symBinAddr: 0x10000A860, symSize: 0x140 }
  - { offsetInCU: 0x19B14, offset: 0x19B14, size: 0x8, addend: 0x0, symName: __ZNSt3__116__hash_node_baseIPNS_11__hash_nodeINS_17__hash_value_typeIiNS_15__list_iteratorIPN3LOB5OrderEPvEEEES7_EEE5__ptrB7v160006Ev, symObjAddr: 0x81E0, symBinAddr: 0x10000A9A0, symSize: 0x20 }
  - { offsetInCU: 0x19B3A, offset: 0x19B3A, size: 0x8, addend: 0x0, symName: __ZNSt3__115__hash_iteratorIPNS_11__hash_nodeINS_17__hash_value_typeIiNS_15__list_iteratorIPN3LOB5OrderEPvEEEES7_EEEC1B7v160006EPNS_16__hash_node_baseISB_EEPKv, symObjAddr: 0x8200, symBinAddr: 0x10000A9C0, symSize: 0x30 }
  - { offsetInCU: 0x19B87, offset: 0x19B87, size: 0x8, addend: 0x0, symName: __ZNSt3__14pairINS_15__hash_iteratorIPNS_11__hash_nodeINS_17__hash_value_typeIiNS_15__list_iteratorIPN3LOB5OrderEPvEEEES8_EEEEbEC1B7v160006ISD_RbLS8_0EEEOT_OT0_, symObjAddr: 0x8230, symBinAddr: 0x10000A9F0, symSize: 0x30 }
  - { offsetInCU: 0x19BE5, offset: 0x19BE5, size: 0x8, addend: 0x0, symName: __ZNKSt3__112__hash_tableINS_17__hash_value_typeIiNS_15__list_iteratorIPN3LOB5OrderEPvEEEENS_22__unordered_map_hasherIiS8_NS_4hashIiEENS_8equal_toIiEELb1EEENS_21__unordered_map_equalIiS8_SD_SB_Lb1EEENS_9allocatorIS8_EEE12bucket_countB7v160006Ev, symObjAddr: 0x8260, symBinAddr: 0x10000AA20, symSize: 0x30 }
  - { offsetInCU: 0x19C0B, offset: 0x19C0B, size: 0x8, addend: 0x0, symName: __ZNKSt3__110unique_ptrIA_PNS_16__hash_node_baseIPNS_11__hash_nodeINS_17__hash_value_typeIiNS_15__list_iteratorIPN3LOB5OrderEPvEEEES8_EEEENS_25__bucket_list_deallocatorINS_9allocatorISE_EEEEEixB7v160006Em, symObjAddr: 0x8290, symBinAddr: 0x10000AA50, symSize: 0x30 }
  - { offsetInCU: 0x19C40, offset: 0x19C40, size: 0x8, addend: 0x0, symName: __ZNSt3__112__hash_tableINS_17__hash_value_typeIiNS_15__list_iteratorIPN3LOB5OrderEPvEEEENS_22__unordered_map_hasherIiS8_NS_4hashIiEENS_8equal_toIiEELb1EEENS_21__unordered_map_equalIiS8_SD_SB_Lb1EEENS_9allocatorIS8_EEE6key_eqB7v160006Ev, symObjAddr: 0x82C0, symBinAddr: 0x10000AA80, symSize: 0x20 }
  - { offsetInCU: 0x19C66, offset: 0x19C66, size: 0x8, addend: 0x0, symName: __ZNKSt3__121__unordered_map_equalIiNS_17__hash_value_typeIiNS_15__list_iteratorIPN3LOB5OrderEPvEEEENS_8equal_toIiEENS_4hashIiEELb1EEclB7v160006ERKS8_SF_, symObjAddr: 0x82E0, symBinAddr: 0x10000AAA0, symSize: 0x50 }
  - { offsetInCU: 0x19CAA, offset: 0x19CAA, size: 0x8, addend: 0x0, symName: __ZNSt3__116__hash_node_baseIPNS_11__hash_nodeINS_17__hash_value_typeIiNS_15__list_iteratorIPN3LOB5OrderEPvEEEES7_EEE8__upcastB7v160006Ev, symObjAddr: 0x8330, symBinAddr: 0x10000AAF0, symSize: 0x20 }
  - { offsetInCU: 0x19CD0, offset: 0x19CD0, size: 0x8, addend: 0x0, symName: __ZNSt3__112__hash_tableINS_17__hash_value_typeIiNS_15__list_iteratorIPN3LOB5OrderEPvEEEENS_22__unordered_map_hasherIiS8_NS_4hashIiEENS_8equal_toIiEELb1EEENS_21__unordered_map_equalIiS8_SD_SB_Lb1EEENS_9allocatorIS8_EEE4sizeB7v160006Ev, symObjAddr: 0x8350, symBinAddr: 0x10000AB10, symSize: 0x20 }
  - { offsetInCU: 0x19CF6, offset: 0x19CF6, size: 0x8, addend: 0x0, symName: __ZNSt3__112__hash_tableINS_17__hash_value_typeIiNS_15__list_iteratorIPN3LOB5OrderEPvEEEENS_22__unordered_map_hasherIiS8_NS_4hashIiEENS_8equal_toIiEELb1EEENS_21__unordered_map_equalIiS8_SD_SB_Lb1EEENS_9allocatorIS8_EEE15max_load_factorB7v160006Ev, symObjAddr: 0x8370, symBinAddr: 0x10000AB30, symSize: 0x20 }
  - { offsetInCU: 0x19D1C, offset: 0x19D1C, size: 0x8, addend: 0x0, symName: __ZNSt3__112__hash_tableINS_17__hash_value_typeIiNS_15__list_iteratorIPN3LOB5OrderEPvEEEENS_22__unordered_map_hasherIiS8_NS_4hashIiEENS_8equal_toIiEELb1EEENS_21__unordered_map_equalIiS8_SD_SB_Lb1EEENS_9allocatorIS8_EEE15__rehash_uniqueB7v160006Em, symObjAddr: 0x8390, symBinAddr: 0x10000AB50, symSize: 0x30 }
  - { offsetInCU: 0x19D51, offset: 0x19D51, size: 0x8, addend: 0x0, symName: __ZNKSt3__110unique_ptrIA_PNS_16__hash_node_baseIPNS_11__hash_nodeINS_17__hash_value_typeIiNS_15__list_iteratorIPN3LOB5OrderEPvEEEES8_EEEENS_25__bucket_list_deallocatorINS_9allocatorISE_EEEEE11get_deleterB7v160006Ev, symObjAddr: 0x83C0, symBinAddr: 0x10000AB80, symSize: 0x20 }
  - { offsetInCU: 0x19D77, offset: 0x19D77, size: 0x8, addend: 0x0, symName: __ZNKSt3__125__bucket_list_deallocatorINS_9allocatorIPNS_16__hash_node_baseIPNS_11__hash_nodeINS_17__hash_value_typeIiNS_15__list_iteratorIPN3LOB5OrderEPvEEEES9_EEEEEEE4sizeB7v160006Ev, symObjAddr: 0x83E0, symBinAddr: 0x10000ABA0, symSize: 0x20 }
  - { offsetInCU: 0x19D9D, offset: 0x19D9D, size: 0x8, addend: 0x0, symName: __ZNKSt3__117__compressed_pairIPPNS_16__hash_node_baseIPNS_11__hash_nodeINS_17__hash_value_typeIiNS_15__list_iteratorIPN3LOB5OrderEPvEEEES8_EEEENS_25__bucket_list_deallocatorINS_9allocatorISE_EEEEE6secondB7v160006Ev, symObjAddr: 0x8400, symBinAddr: 0x10000ABC0, symSize: 0x20 }
  - { offsetInCU: 0x19DC3, offset: 0x19DC3, size: 0x8, addend: 0x0, symName: __ZNKSt3__122__compressed_pair_elemINS_25__bucket_list_deallocatorINS_9allocatorIPNS_16__hash_node_baseIPNS_11__hash_nodeINS_17__hash_value_typeIiNS_15__list_iteratorIPN3LOB5OrderEPvEEEESA_EEEEEEEELi1ELb0EE5__getB7v160006Ev, symObjAddr: 0x8420, symBinAddr: 0x10000ABE0, symSize: 0x10 }
  - { offsetInCU: 0x19DE9, offset: 0x19DE9, size: 0x8, addend: 0x0, symName: __ZNKSt3__117__compressed_pairImNS_9allocatorIPNS_16__hash_node_baseIPNS_11__hash_nodeINS_17__hash_value_typeIiNS_15__list_iteratorIPN3LOB5OrderEPvEEEES9_EEEEEEE5firstB7v160006Ev, symObjAddr: 0x8430, symBinAddr: 0x10000ABF0, symSize: 0x20 }
  - { offsetInCU: 0x19E0F, offset: 0x19E0F, size: 0x8, addend: 0x0, symName: __ZNKSt3__117__compressed_pairIPPNS_16__hash_node_baseIPNS_11__hash_nodeINS_17__hash_value_typeIiNS_15__list_iteratorIPN3LOB5OrderEPvEEEES8_EEEENS_25__bucket_list_deallocatorINS_9allocatorISE_EEEEE5firstB7v160006Ev, symObjAddr: 0x8450, symBinAddr: 0x10000AC10, symSize: 0x20 }
  - { offsetInCU: 0x19E35, offset: 0x19E35, size: 0x8, addend: 0x0, symName: __ZNKSt3__122__compressed_pair_elemIPPNS_16__hash_node_baseIPNS_11__hash_nodeINS_17__hash_value_typeIiNS_15__list_iteratorIPN3LOB5OrderEPvEEEES8_EEEELi0ELb0EE5__getB7v160006Ev, symObjAddr: 0x8470, symBinAddr: 0x10000AC30, symSize: 0x10 }
  - { offsetInCU: 0x19E5B, offset: 0x19E5B, size: 0x8, addend: 0x0, symName: __ZNSt3__117__compressed_pairIfNS_21__unordered_map_equalIiNS_17__hash_value_typeIiNS_15__list_iteratorIPN3LOB5OrderEPvEEEENS_8equal_toIiEENS_4hashIiEELb1EEEE6secondB7v160006Ev, symObjAddr: 0x8480, symBinAddr: 0x10000AC40, symSize: 0x20 }
  - { offsetInCU: 0x19E81, offset: 0x19E81, size: 0x8, addend: 0x0, symName: __ZNSt3__122__compressed_pair_elemINS_21__unordered_map_equalIiNS_17__hash_value_typeIiNS_15__list_iteratorIPN3LOB5OrderEPvEEEENS_8equal_toIiEENS_4hashIiEELb1EEELi1ELb1EE5__getB7v160006Ev, symObjAddr: 0x84A0, symBinAddr: 0x10000AC60, symSize: 0x10 }
  - { offsetInCU: 0x19EA7, offset: 0x19EA7, size: 0x8, addend: 0x0, symName: __ZNKSt3__18equal_toIiEclB7v160006ERKiS3_, symObjAddr: 0x84B0, symBinAddr: 0x10000AC70, symSize: 0x30 }
  - { offsetInCU: 0x19EEB, offset: 0x19EEB, size: 0x8, addend: 0x0, symName: __ZNSt3__114pointer_traitsIPNS_16__hash_node_baseIPNS_11__hash_nodeINS_17__hash_value_typeIiNS_15__list_iteratorIPN3LOB5OrderEPvEEEES8_EEEEE10pointer_toB7v160006ERSD_, symObjAddr: 0x84E0, symBinAddr: 0x10000ACA0, symSize: 0x10 }
  - { offsetInCU: 0x19F0E, offset: 0x19F0E, size: 0x8, addend: 0x0, symName: __ZNSt3__117__compressed_pairImNS_22__unordered_map_hasherIiNS_17__hash_value_typeIiNS_15__list_iteratorIPN3LOB5OrderEPvEEEENS_4hashIiEENS_8equal_toIiEELb1EEEE5firstB7v160006Ev, symObjAddr: 0x84F0, symBinAddr: 0x10000ACB0, symSize: 0x20 }
  - { offsetInCU: 0x19F34, offset: 0x19F34, size: 0x8, addend: 0x0, symName: __ZNSt3__117__compressed_pairIfNS_21__unordered_map_equalIiNS_17__hash_value_typeIiNS_15__list_iteratorIPN3LOB5OrderEPvEEEENS_8equal_toIiEENS_4hashIiEELb1EEEE5firstB7v160006Ev, symObjAddr: 0x8510, symBinAddr: 0x10000ACD0, symSize: 0x20 }
  - { offsetInCU: 0x19F5A, offset: 0x19F5A, size: 0x8, addend: 0x0, symName: __ZNSt3__112__hash_tableINS_17__hash_value_typeIiNS_15__list_iteratorIPN3LOB5OrderEPvEEEENS_22__unordered_map_hasherIiS8_NS_4hashIiEENS_8equal_toIiEELb1EEENS_21__unordered_map_equalIiS8_SD_SB_Lb1EEENS_9allocatorIS8_EEE8__rehashILb1EEEvm, symObjAddr: 0x8530, symBinAddr: 0x10000ACF0, symSize: 0x230 }
  - { offsetInCU: 0x19FAA, offset: 0x19FAA, size: 0x8, addend: 0x0, symName: __ZNSt3__112__hash_tableINS_17__hash_value_typeIiNS_15__list_iteratorIPN3LOB5OrderEPvEEEENS_22__unordered_map_hasherIiS8_NS_4hashIiEENS_8equal_toIiEELb1EEENS_21__unordered_map_equalIiS8_SD_SB_Lb1EEENS_9allocatorIS8_EEE11__do_rehashILb1EEEvm, symObjAddr: 0x8760, symBinAddr: 0x10000AF20, symSize: 0x260 }
  - { offsetInCU: 0x1A08D, offset: 0x1A08D, size: 0x8, addend: 0x0, symName: __ZNSt3__110unique_ptrIA_PNS_16__hash_node_baseIPNS_11__hash_nodeINS_17__hash_value_typeIiNS_15__list_iteratorIPN3LOB5OrderEPvEEEES8_EEEENS_25__bucket_list_deallocatorINS_9allocatorISE_EEEEE11get_deleterB7v160006Ev, symObjAddr: 0x89D0, symBinAddr: 0x10000B190, symSize: 0x20 }
  - { offsetInCU: 0x1A0B3, offset: 0x1A0B3, size: 0x8, addend: 0x0, symName: __ZNSt3__125__bucket_list_deallocatorINS_9allocatorIPNS_16__hash_node_baseIPNS_11__hash_nodeINS_17__hash_value_typeIiNS_15__list_iteratorIPN3LOB5OrderEPvEEEES9_EEEEEEE7__allocB7v160006Ev, symObjAddr: 0x89F0, symBinAddr: 0x10000B1B0, symSize: 0x20 }
  - { offsetInCU: 0x1A0D9, offset: 0x1A0D9, size: 0x8, addend: 0x0, symName: __ZNSt3__110unique_ptrIA_PNS_16__hash_node_baseIPNS_11__hash_nodeINS_17__hash_value_typeIiNS_15__list_iteratorIPN3LOB5OrderEPvEEEES8_EEEENS_25__bucket_list_deallocatorINS_9allocatorISE_EEEEE5resetB7v160006IPSE_EENS_9enable_ifIXsr28_CheckArrayPointerConversionIT_EE5valueEvE4typeESO_, symObjAddr: 0x8A10, symBinAddr: 0x10000B1D0, symSize: 0x70 }
  - { offsetInCU: 0x1A126, offset: 0x1A126, size: 0x8, addend: 0x0, symName: __ZNSt3__116allocator_traitsINS_9allocatorIPNS_16__hash_node_baseIPNS_11__hash_nodeINS_17__hash_value_typeIiNS_15__list_iteratorIPN3LOB5OrderEPvEEEES9_EEEEEEE8allocateB7v160006ERSG_m, symObjAddr: 0x8A80, symBinAddr: 0x10000B240, symSize: 0x30 }
  - { offsetInCU: 0x1A159, offset: 0x1A159, size: 0x8, addend: 0x0, symName: __ZNSt3__125__bucket_list_deallocatorINS_9allocatorIPNS_16__hash_node_baseIPNS_11__hash_nodeINS_17__hash_value_typeIiNS_15__list_iteratorIPN3LOB5OrderEPvEEEES9_EEEEEEE4sizeB7v160006Ev, symObjAddr: 0x8AB0, symBinAddr: 0x10000B270, symSize: 0x20 }
  - { offsetInCU: 0x1A17F, offset: 0x1A17F, size: 0x8, addend: 0x0, symName: __ZNSt3__117__compressed_pairINS_16__hash_node_baseIPNS_11__hash_nodeINS_17__hash_value_typeIiNS_15__list_iteratorIPN3LOB5OrderEPvEEEES8_EEEENS_9allocatorISB_EEE5firstB7v160006Ev, symObjAddr: 0x8AD0, symBinAddr: 0x10000B290, symSize: 0x20 }
  - { offsetInCU: 0x1A1A5, offset: 0x1A1A5, size: 0x8, addend: 0x0, symName: __ZNSt3__117__compressed_pairIPPNS_16__hash_node_baseIPNS_11__hash_nodeINS_17__hash_value_typeIiNS_15__list_iteratorIPN3LOB5OrderEPvEEEES8_EEEENS_25__bucket_list_deallocatorINS_9allocatorISE_EEEEE6secondB7v160006Ev, symObjAddr: 0x8AF0, symBinAddr: 0x10000B2B0, symSize: 0x20 }
  - { offsetInCU: 0x1A1CB, offset: 0x1A1CB, size: 0x8, addend: 0x0, symName: __ZNSt3__122__compressed_pair_elemINS_25__bucket_list_deallocatorINS_9allocatorIPNS_16__hash_node_baseIPNS_11__hash_nodeINS_17__hash_value_typeIiNS_15__list_iteratorIPN3LOB5OrderEPvEEEESA_EEEEEEEELi1ELb0EE5__getB7v160006Ev, symObjAddr: 0x8B10, symBinAddr: 0x10000B2D0, symSize: 0x10 }
  - { offsetInCU: 0x1A1F1, offset: 0x1A1F1, size: 0x8, addend: 0x0, symName: __ZNSt3__117__compressed_pairImNS_9allocatorIPNS_16__hash_node_baseIPNS_11__hash_nodeINS_17__hash_value_typeIiNS_15__list_iteratorIPN3LOB5OrderEPvEEEES9_EEEEEEE6secondB7v160006Ev, symObjAddr: 0x8B20, symBinAddr: 0x10000B2E0, symSize: 0x20 }
  - { offsetInCU: 0x1A217, offset: 0x1A217, size: 0x8, addend: 0x0, symName: __ZNSt3__122__compressed_pair_elemINS_9allocatorIPNS_16__hash_node_baseIPNS_11__hash_nodeINS_17__hash_value_typeIiNS_15__list_iteratorIPN3LOB5OrderEPvEEEES9_EEEEEELi1ELb1EE5__getB7v160006Ev, symObjAddr: 0x8B40, symBinAddr: 0x10000B300, symSize: 0x10 }
  - { offsetInCU: 0x1A23D, offset: 0x1A23D, size: 0x8, addend: 0x0, symName: __ZNSt3__117__compressed_pairIPPNS_16__hash_node_baseIPNS_11__hash_nodeINS_17__hash_value_typeIiNS_15__list_iteratorIPN3LOB5OrderEPvEEEES8_EEEENS_25__bucket_list_deallocatorINS_9allocatorISE_EEEEE5firstB7v160006Ev, symObjAddr: 0x8B50, symBinAddr: 0x10000B310, symSize: 0x20 }
  - { offsetInCU: 0x1A263, offset: 0x1A263, size: 0x8, addend: 0x0, symName: __ZNSt3__125__bucket_list_deallocatorINS_9allocatorIPNS_16__hash_node_baseIPNS_11__hash_nodeINS_17__hash_value_typeIiNS_15__list_iteratorIPN3LOB5OrderEPvEEEES9_EEEEEEEclB7v160006EPSF_, symObjAddr: 0x8B70, symBinAddr: 0x10000B330, symSize: 0x50 }
  - { offsetInCU: 0x1A298, offset: 0x1A298, size: 0x8, addend: 0x0, symName: __ZNSt3__122__compressed_pair_elemIPPNS_16__hash_node_baseIPNS_11__hash_nodeINS_17__hash_value_typeIiNS_15__list_iteratorIPN3LOB5OrderEPvEEEES8_EEEELi0ELb0EE5__getB7v160006Ev, symObjAddr: 0x8BC0, symBinAddr: 0x10000B380, symSize: 0x10 }
  - { offsetInCU: 0x1A2BE, offset: 0x1A2BE, size: 0x8, addend: 0x0, symName: __ZNSt3__116allocator_traitsINS_9allocatorIPNS_16__hash_node_baseIPNS_11__hash_nodeINS_17__hash_value_typeIiNS_15__list_iteratorIPN3LOB5OrderEPvEEEES9_EEEEEEE10deallocateB7v160006ERSG_PSF_m, symObjAddr: 0x8BD0, symBinAddr: 0x10000B390, symSize: 0x30 }
  - { offsetInCU: 0x1A300, offset: 0x1A300, size: 0x8, addend: 0x0, symName: __ZNSt3__19allocatorIPNS_16__hash_node_baseIPNS_11__hash_nodeINS_17__hash_value_typeIiNS_15__list_iteratorIPN3LOB5OrderEPvEEEES8_EEEEE10deallocateB7v160006EPSE_m, symObjAddr: 0x8C00, symBinAddr: 0x10000B3C0, symSize: 0x40 }
  - { offsetInCU: 0x1A342, offset: 0x1A342, size: 0x8, addend: 0x0, symName: __ZNSt3__19allocatorIPNS_16__hash_node_baseIPNS_11__hash_nodeINS_17__hash_value_typeIiNS_15__list_iteratorIPN3LOB5OrderEPvEEEES8_EEEEE8allocateB7v160006Em, symObjAddr: 0x8C40, symBinAddr: 0x10000B400, symSize: 0x50 }
  - { offsetInCU: 0x1A380, offset: 0x1A380, size: 0x8, addend: 0x0, symName: __ZNSt3__116allocator_traitsINS_9allocatorIPNS_16__hash_node_baseIPNS_11__hash_nodeINS_17__hash_value_typeIiNS_15__list_iteratorIPN3LOB5OrderEPvEEEES9_EEEEEEE8max_sizeB7v160006ISG_vvEEmRKSG_, symObjAddr: 0x8C90, symBinAddr: 0x10000B450, symSize: 0x20 }
  - { offsetInCU: 0x1A3AC, offset: 0x1A3AC, size: 0x8, addend: 0x0, symName: __ZNSt3__117__compressed_pairImNS_9allocatorIPNS_16__hash_node_baseIPNS_11__hash_nodeINS_17__hash_value_typeIiNS_15__list_iteratorIPN3LOB5OrderEPvEEEES9_EEEEEEE5firstB7v160006Ev, symObjAddr: 0x8CB0, symBinAddr: 0x10000B470, symSize: 0x20 }
  - { offsetInCU: 0x1A3D2, offset: 0x1A3D2, size: 0x8, addend: 0x0, symName: __ZNSt3__122__compressed_pair_elemINS_16__hash_node_baseIPNS_11__hash_nodeINS_17__hash_value_typeIiNS_15__list_iteratorIPN3LOB5OrderEPvEEEES8_EEEELi0ELb0EE5__getB7v160006Ev, symObjAddr: 0x8CD0, symBinAddr: 0x10000B490, symSize: 0x10 }
  - { offsetInCU: 0x1A3F8, offset: 0x1A3F8, size: 0x8, addend: 0x0, symName: __ZNSt3__115__hash_iteratorIPNS_11__hash_nodeINS_17__hash_value_typeIiNS_15__list_iteratorIPN3LOB5OrderEPvEEEES7_EEEC2B7v160006EPNS_16__hash_node_baseISB_EEPKv, symObjAddr: 0x8CE0, symBinAddr: 0x10000B4A0, symSize: 0x20 }
  - { offsetInCU: 0x1A440, offset: 0x1A440, size: 0x8, addend: 0x0, symName: __ZNSt3__14pairINS_15__hash_iteratorIPNS_11__hash_nodeINS_17__hash_value_typeIiNS_15__list_iteratorIPN3LOB5OrderEPvEEEES8_EEEEbEC2B7v160006ISD_RbLS8_0EEEOT_OT0_, symObjAddr: 0x8D00, symBinAddr: 0x10000B4C0, symSize: 0x30 }
  - { offsetInCU: 0x1A49E, offset: 0x1A49E, size: 0x8, addend: 0x0, symName: __ZNSt3__117__compressed_pairIPNS_11__hash_nodeINS_17__hash_value_typeIiNS_15__list_iteratorIPN3LOB5OrderEPvEEEES7_EENS_22__hash_node_destructorINS_9allocatorISA_EEEEE5firstB7v160006Ev, symObjAddr: 0x8D30, symBinAddr: 0x10000B4F0, symSize: 0x20 }
  - { offsetInCU: 0x1A4C4, offset: 0x1A4C4, size: 0x8, addend: 0x0, symName: __ZNSt3__122__compressed_pair_elemIPNS_11__hash_nodeINS_17__hash_value_typeIiNS_15__list_iteratorIPN3LOB5OrderEPvEEEES7_EELi0ELb0EE5__getB7v160006Ev, symObjAddr: 0x8D50, symBinAddr: 0x10000B510, symSize: 0x10 }
  - { offsetInCU: 0x1A4EA, offset: 0x1A4EA, size: 0x8, addend: 0x0, symName: __ZNSt3__110unique_ptrINS_11__hash_nodeINS_17__hash_value_typeIiNS_15__list_iteratorIPN3LOB5OrderEPvEEEES7_EENS_22__hash_node_destructorINS_9allocatorISA_EEEEED2B7v160006Ev, symObjAddr: 0x8D60, symBinAddr: 0x10000B520, symSize: 0x20 }
  - { offsetInCU: 0x1A514, offset: 0x1A514, size: 0x8, addend: 0x0, symName: __ZNSt3__110unique_ptrINS_11__hash_nodeINS_17__hash_value_typeIiNS_15__list_iteratorIPN3LOB5OrderEPvEEEES7_EENS_22__hash_node_destructorINS_9allocatorISA_EEEEE5resetB7v160006EPSA_, symObjAddr: 0x8D80, symBinAddr: 0x10000B540, symSize: 0x70 }
  - { offsetInCU: 0x1A558, offset: 0x1A558, size: 0x8, addend: 0x0, symName: __ZNSt3__122__hash_node_destructorINS_9allocatorINS_11__hash_nodeINS_17__hash_value_typeIiNS_15__list_iteratorIPN3LOB5OrderEPvEEEES8_EEEEEclB7v160006EPSB_, symObjAddr: 0x8DF0, symBinAddr: 0x10000B5B0, symSize: 0x90 }
  - { offsetInCU: 0x1A58D, offset: 0x1A58D, size: 0x8, addend: 0x0, symName: __ZNSt3__116allocator_traitsINS_9allocatorINS_11__hash_nodeINS_17__hash_value_typeIiNS_15__list_iteratorIPN3LOB5OrderEPvEEEES8_EEEEE7destroyB7v160006INS_4pairIKiS9_EEvvEEvRSC_PT_, symObjAddr: 0x8E80, symBinAddr: 0x10000B640, symSize: 0x20 }
  - { offsetInCU: 0x1A5C8, offset: 0x1A5C8, size: 0x8, addend: 0x0, symName: __ZNSt3__116allocator_traitsINS_9allocatorINS_11__hash_nodeINS_17__hash_value_typeIiNS_15__list_iteratorIPN3LOB5OrderEPvEEEES8_EEEEE10deallocateB7v160006ERSC_PSB_m, symObjAddr: 0x8EA0, symBinAddr: 0x10000B660, symSize: 0x30 }
  - { offsetInCU: 0x1A60A, offset: 0x1A60A, size: 0x8, addend: 0x0, symName: __ZNSt3__19allocatorINS_11__hash_nodeINS_17__hash_value_typeIiNS_15__list_iteratorIPN3LOB5OrderEPvEEEES7_EEE10deallocateB7v160006EPSA_m, symObjAddr: 0x8F00, symBinAddr: 0x10000B6C0, symSize: 0x40 }
  - { offsetInCU: 0x1A64C, offset: 0x1A64C, size: 0x8, addend: 0x0, symName: __ZNSt3__14pairINS_19__hash_map_iteratorINS_15__hash_iteratorIPNS_11__hash_nodeINS_17__hash_value_typeIiNS_15__list_iteratorIPN3LOB5OrderEPvEEEES9_EEEEEEbEC2B7v160006ISE_bLS9_0EEEONS0_IT_T0_EE, symObjAddr: 0x8F40, symBinAddr: 0x10000B700, symSize: 0x50 }
  - { offsetInCU: 0x1A69D, offset: 0x1A69D, size: 0x8, addend: 0x0, symName: __ZNSt3__119__hash_map_iteratorINS_15__hash_iteratorIPNS_11__hash_nodeINS_17__hash_value_typeIiNS_15__list_iteratorIPN3LOB5OrderEPvEEEES8_EEEEEC1B7v160006ESD_, symObjAddr: 0x8F90, symBinAddr: 0x10000B750, symSize: 0x30 }
  - { offsetInCU: 0x1A6D6, offset: 0x1A6D6, size: 0x8, addend: 0x0, symName: __ZNSt3__119__hash_map_iteratorINS_15__hash_iteratorIPNS_11__hash_nodeINS_17__hash_value_typeIiNS_15__list_iteratorIPN3LOB5OrderEPvEEEES8_EEEEEC2B7v160006ESD_, symObjAddr: 0x8FC0, symBinAddr: 0x10000B780, symSize: 0x20 }
  - { offsetInCU: 0x1A70F, offset: 0x1A70F, size: 0x8, addend: 0x0, symName: __ZNSt3__115__list_iteratorIPN3LOB5OrderEPvEppB7v160006Ev, symObjAddr: 0x90C0, symBinAddr: 0x10000B880, symSize: 0x20 }
  - { offsetInCU: 0x1A735, offset: 0x1A735, size: 0x8, addend: 0x0, symName: __ZNSt3__115__list_iteratorIPN3LOB5OrderEPvEmmB7v160006Ev, symObjAddr: 0x90E0, symBinAddr: 0x10000B8A0, symSize: 0x20 }
  - { offsetInCU: 0x1A75B, offset: 0x1A75B, size: 0x8, addend: 0x0, symName: __ZNSt3__110__list_impIPN3LOB5OrderENS_9allocatorIS3_EEE3endB7v160006Ev, symObjAddr: 0x9100, symBinAddr: 0x10000B8C0, symSize: 0x40 }
  - { offsetInCU: 0x1A781, offset: 0x1A781, size: 0x8, addend: 0x0, symName: __ZNSt3__115__list_iteratorIPN3LOB5OrderEPvEC1B7v160006EPNS_16__list_node_baseIS3_S4_EEPKv, symObjAddr: 0x9140, symBinAddr: 0x10000B900, symSize: 0x30 }
  - { offsetInCU: 0x1A7C9, offset: 0x1A7C9, size: 0x8, addend: 0x0, symName: __ZNSt3__115__list_iteratorIPN3LOB5OrderEPvEC2B7v160006EPNS_16__list_node_baseIS3_S4_EEPKv, symObjAddr: 0x9170, symBinAddr: 0x10000B930, symSize: 0x20 }
  - { offsetInCU: 0x1A811, offset: 0x1A811, size: 0x8, addend: 0x0, symName: __ZNSt3__116allocator_traitsINS_9allocatorINS_11__list_nodeIPN3LOB5OrderEPvEEEEE9constructB7v160006IS5_JRS5_EvvEEvRS8_PT_DpOT0_, symObjAddr: 0x9190, symBinAddr: 0x10000B950, symSize: 0x30 }
  - { offsetInCU: 0x1A870, offset: 0x1A870, size: 0x8, addend: 0x0, symName: '__ZZN3LOB14LimitOrderBook9limitSellEyyyENK3$_1clEy', symObjAddr: 0x9230, symBinAddr: 0x10000B9F0, symSize: 0x30 }
  - { offsetInCU: 0x1A8B2, offset: 0x1A8B2, size: 0x8, addend: 0x0, symName: '__ZZN3LOB14LimitOrderBook9marketBuyEyyENK3$_2clEy', symObjAddr: 0x92C0, symBinAddr: 0x10000BA80, symSize: 0x30 }
  - { offsetInCU: 0x1A8F4, offset: 0x1A8F4, size: 0x8, addend: 0x0, symName: '__ZZN3LOB14LimitOrderBook10marketSellEyyENK3$_3clEy', symObjAddr: 0x92F0, symBinAddr: 0x10000BAB0, symSize: 0x30 }
  - { offsetInCU: 0x1A92C, offset: 0x1A92C, size: 0x8, addend: 0x0, symName: __ZNKSt3__14listIPN3LOB5OrderENS_9allocatorIS3_EEE4sizeB7v160006Ev, symObjAddr: 0x9320, symBinAddr: 0x10000BAE0, symSize: 0x20 }
  - { offsetInCU: 0x1A952, offset: 0x1A952, size: 0x8, addend: 0x0, symName: __ZNSt3__13mapIyPN3LOB5LimitENS_4lessIyEENS_9allocatorINS_4pairIKyS3_EEEEE5eraseB7v160006ERS8_, symObjAddr: 0x93C0, symBinAddr: 0x10000BB80, symSize: 0x30 }
  - { offsetInCU: 0x1A987, offset: 0x1A987, size: 0x8, addend: 0x0, symName: __ZN3LOB5LimitD1Ev, symObjAddr: 0x93F0, symBinAddr: 0x10000BBB0, symSize: 0x20 }
  - { offsetInCU: 0x1A9B3, offset: 0x1A9B3, size: 0x8, addend: 0x0, symName: __ZNSt3__113unordered_mapIiNS_15__list_iteratorIPN3LOB5OrderEPvEENS_4hashIiEENS_8equal_toIiEENS_9allocatorINS_4pairIKiS6_EEEEEixEOi, symObjAddr: 0x9410, symBinAddr: 0x10000BBD0, symSize: 0x70 }
  - { offsetInCU: 0x1A9EA, offset: 0x1A9EA, size: 0x8, addend: 0x0, symName: __ZNSt3__113unordered_mapIiNS_15__list_iteratorIPN3LOB5OrderEPvEENS_4hashIiEENS_8equal_toIiEENS_9allocatorINS_4pairIKiS6_EEEEE5eraseB7v160006ERSD_, symObjAddr: 0x9480, symBinAddr: 0x10000BC40, symSize: 0x30 }
  - { offsetInCU: 0x1AA1F, offset: 0x1AA1F, size: 0x8, addend: 0x0, symName: __ZNSt3__14listIPN3LOB5OrderENS_9allocatorIS3_EEE5eraseENS_21__list_const_iteratorIS3_PvEE, symObjAddr: 0x94B0, symBinAddr: 0x10000BC70, symSize: 0xA0 }
  - { offsetInCU: 0x1AA92, offset: 0x1AA92, size: 0x8, addend: 0x0, symName: __ZNSt3__121__list_const_iteratorIPN3LOB5OrderEPvEC1B7v160006ERKNS_15__list_iteratorIS3_S4_EE, symObjAddr: 0x9550, symBinAddr: 0x10000BD10, symSize: 0x30 }
  - { offsetInCU: 0x1AACB, offset: 0x1AACB, size: 0x8, addend: 0x0, symName: __ZNKSt3__13mapIyPN3LOB5LimitENS_4lessIyEENS_9allocatorINS_4pairIKyS3_EEEEE4sizeB7v160006Ev, symObjAddr: 0x9580, symBinAddr: 0x10000BD40, symSize: 0x20 }
  - { offsetInCU: 0x1AAF1, offset: 0x1AAF1, size: 0x8, addend: 0x0, symName: __ZNSt3__13mapIyPN3LOB5LimitENS_4lessIyEENS_9allocatorINS_4pairIKyS3_EEEEE6rbeginB7v160006Ev, symObjAddr: 0x9600, symBinAddr: 0x10000BDC0, symSize: 0x50 }
  - { offsetInCU: 0x1AB17, offset: 0x1AB17, size: 0x8, addend: 0x0, symName: __ZNKSt3__116reverse_iteratorINS_14__map_iteratorINS_15__tree_iteratorINS_12__value_typeIyPN3LOB5LimitEEEPNS_11__tree_nodeIS7_PvEElEEEEEptB7v160006Ev, symObjAddr: 0x9650, symBinAddr: 0x10000BE10, symSize: 0x40 }
  - { offsetInCU: 0x1AB3D, offset: 0x1AB3D, size: 0x8, addend: 0x0, symName: __ZNKSt3__16__treeINS_12__value_typeIyPN3LOB5LimitEEENS_19__map_value_compareIyS5_NS_4lessIyEELb1EEENS_9allocatorIS5_EEE4sizeB7v160006Ev, symObjAddr: 0x9690, symBinAddr: 0x10000BE50, symSize: 0x20 }
  - { offsetInCU: 0x1AB63, offset: 0x1AB63, size: 0x8, addend: 0x0, symName: __ZNKSt3__117__compressed_pairImNS_19__map_value_compareIyNS_12__value_typeIyPN3LOB5LimitEEENS_4lessIyEELb1EEEE5firstB7v160006Ev, symObjAddr: 0x96B0, symBinAddr: 0x10000BE70, symSize: 0x20 }
  - { offsetInCU: 0x1AB89, offset: 0x1AB89, size: 0x8, addend: 0x0, symName: __ZNSt3__116reverse_iteratorINS_14__map_iteratorINS_15__tree_iteratorINS_12__value_typeIyPN3LOB5LimitEEEPNS_11__tree_nodeIS7_PvEElEEEEEppB7v160006Ev, symObjAddr: 0x97A0, symBinAddr: 0x10000BF60, symSize: 0x30 }
  - { offsetInCU: 0x1ABAF, offset: 0x1ABAF, size: 0x8, addend: 0x0, symName: __ZNSt3__116reverse_iteratorINS_14__map_iteratorINS_15__tree_iteratorINS_12__value_typeIyPN3LOB5LimitEEEPNS_11__tree_nodeIS7_PvEElEEEEEmmB7v160006Ev, symObjAddr: 0x97D0, symBinAddr: 0x10000BF90, symSize: 0x30 }
  - { offsetInCU: 0x1ABD5, offset: 0x1ABD5, size: 0x8, addend: 0x0, symName: __ZNSt3__114__map_iteratorINS_15__tree_iteratorINS_12__value_typeIyPN3LOB5LimitEEEPNS_11__tree_nodeIS6_PvEElEEEmmB7v160006Ev, symObjAddr: 0x9800, symBinAddr: 0x10000BFC0, symSize: 0x30 }
  - { offsetInCU: 0x1ABFB, offset: 0x1ABFB, size: 0x8, addend: 0x0, symName: __ZNSt3__115__tree_iteratorINS_12__value_typeIyPN3LOB5LimitEEEPNS_11__tree_nodeIS5_PvEElEmmB7v160006Ev, symObjAddr: 0x9830, symBinAddr: 0x10000BFF0, symSize: 0x30 }
  - { offsetInCU: 0x1AC21, offset: 0x1AC21, size: 0x8, addend: 0x0, symName: __ZNSt3__116reverse_iteratorINS_14__map_iteratorINS_15__tree_iteratorINS_12__value_typeIyPN3LOB5LimitEEEPNS_11__tree_nodeIS7_PvEElEEEEEC1B7v160006ESD_, symObjAddr: 0x9910, symBinAddr: 0x10000C0D0, symSize: 0x30 }
  - { offsetInCU: 0x1AC59, offset: 0x1AC59, size: 0x8, addend: 0x0, symName: __ZNSt3__116reverse_iteratorINS_14__map_iteratorINS_15__tree_iteratorINS_12__value_typeIyPN3LOB5LimitEEEPNS_11__tree_nodeIS7_PvEElEEEEEC2B7v160006ESD_, symObjAddr: 0x9940, symBinAddr: 0x10000C100, symSize: 0x30 }
  - { offsetInCU: 0x1AC91, offset: 0x1AC91, size: 0x8, addend: 0x0, symName: __ZNSt3__16__treeINS_12__value_typeIyPN3LOB5LimitEEENS_19__map_value_compareIyS5_NS_4lessIyEELb1EEENS_9allocatorIS5_EEE14__erase_uniqueIyEEmRKT_, symObjAddr: 0x9A90, symBinAddr: 0x10000C250, symSize: 0xA0 }
  - { offsetInCU: 0x1ACE0, offset: 0x1ACE0, size: 0x8, addend: 0x0, symName: __ZNSt3__16__treeINS_12__value_typeIyPN3LOB5LimitEEENS_19__map_value_compareIyS5_NS_4lessIyEELb1EEENS_9allocatorIS5_EEE4findIyEENS_15__tree_iteratorIS5_PNS_11__tree_nodeIS5_PvEElEERKT_, symObjAddr: 0x9B30, symBinAddr: 0x10000C2F0, symSize: 0xE0 }
  - { offsetInCU: 0x1AD2F, offset: 0x1AD2F, size: 0x8, addend: 0x0, symName: __ZNSt3__16__treeINS_12__value_typeIyPN3LOB5LimitEEENS_19__map_value_compareIyS5_NS_4lessIyEELb1EEENS_9allocatorIS5_EEE5eraseENS_21__tree_const_iteratorIS5_PNS_11__tree_nodeIS5_PvEElEE, symObjAddr: 0x9C10, symBinAddr: 0x10000C3D0, symSize: 0x90 }
  - { offsetInCU: 0x1AD93, offset: 0x1AD93, size: 0x8, addend: 0x0, symName: __ZNSt3__121__tree_const_iteratorINS_12__value_typeIyPN3LOB5LimitEEEPNS_11__tree_nodeIS5_PvEElEC1B7v160006ENS_15__tree_iteratorIS5_S9_lEE, symObjAddr: 0x9CA0, symBinAddr: 0x10000C460, symSize: 0x30 }
  - { offsetInCU: 0x1ADCC, offset: 0x1ADCC, size: 0x8, addend: 0x0, symName: __ZNSt3__16__treeINS_12__value_typeIyPN3LOB5LimitEEENS_19__map_value_compareIyS5_NS_4lessIyEELb1EEENS_9allocatorIS5_EEE13__lower_boundIyEENS_15__tree_iteratorIS5_PNS_11__tree_nodeIS5_PvEElEERKT_SI_PNS_15__tree_end_nodeIPNS_16__tree_node_baseISG_EEEE, symObjAddr: 0x9CD0, symBinAddr: 0x10000C490, symSize: 0x90 }
  - { offsetInCU: 0x1AE2A, offset: 0x1AE2A, size: 0x8, addend: 0x0, symName: __ZNKSt3__115__tree_iteratorINS_12__value_typeIyPN3LOB5LimitEEEPNS_11__tree_nodeIS5_PvEElEdeB7v160006Ev, symObjAddr: 0x9D60, symBinAddr: 0x10000C520, symSize: 0x20 }
  - { offsetInCU: 0x1AE50, offset: 0x1AE50, size: 0x8, addend: 0x0, symName: __ZNKSt3__121__tree_const_iteratorINS_12__value_typeIyPN3LOB5LimitEEEPNS_11__tree_nodeIS5_PvEElE8__get_npB7v160006Ev, symObjAddr: 0x9D80, symBinAddr: 0x10000C540, symSize: 0x20 }
  - { offsetInCU: 0x1AE76, offset: 0x1AE76, size: 0x8, addend: 0x0, symName: __ZNSt3__16__treeINS_12__value_typeIyPN3LOB5LimitEEENS_19__map_value_compareIyS5_NS_4lessIyEELb1EEENS_9allocatorIS5_EEE21__remove_node_pointerEPNS_11__tree_nodeIS5_PvEE, symObjAddr: 0x9DA0, symBinAddr: 0x10000C560, symSize: 0x90 }
  - { offsetInCU: 0x1AEBC, offset: 0x1AEBC, size: 0x8, addend: 0x0, symName: __ZNKSt3__121__tree_const_iteratorINS_12__value_typeIyPN3LOB5LimitEEEPNS_11__tree_nodeIS5_PvEElEdeB7v160006Ev, symObjAddr: 0x9E30, symBinAddr: 0x10000C5F0, symSize: 0x20 }
  - { offsetInCU: 0x1AEE2, offset: 0x1AEE2, size: 0x8, addend: 0x0, symName: __ZNSt3__121__tree_const_iteratorINS_12__value_typeIyPN3LOB5LimitEEEPNS_11__tree_nodeIS5_PvEElEC2B7v160006ENS_15__tree_iteratorIS5_S9_lEE, symObjAddr: 0xA4B0, symBinAddr: 0x10000CC70, symSize: 0x20 }
  - { offsetInCU: 0x1AF1B, offset: 0x1AF1B, size: 0x8, addend: 0x0, symName: __ZN3LOB5LimitD2Ev, symObjAddr: 0xA4D0, symBinAddr: 0x10000CC90, symSize: 0x30 }
  - { offsetInCU: 0x1AF47, offset: 0x1AF47, size: 0x8, addend: 0x0, symName: __ZNSt3__113unordered_mapIiNS_15__list_iteratorIPN3LOB5OrderEPvEENS_4hashIiEENS_8equal_toIiEENS_9allocatorINS_4pairIKiS6_EEEEED1B7v160006Ev, symObjAddr: 0xA500, symBinAddr: 0x10000CCC0, symSize: 0x20 }
  - { offsetInCU: 0x1AF71, offset: 0x1AF71, size: 0x8, addend: 0x0, symName: __ZNSt3__14listIPN3LOB5OrderENS_9allocatorIS3_EEED1Ev, symObjAddr: 0xA520, symBinAddr: 0x10000CCE0, symSize: 0x20 }
  - { offsetInCU: 0x1AF9E, offset: 0x1AF9E, size: 0x8, addend: 0x0, symName: __ZNSt3__113unordered_mapIiNS_15__list_iteratorIPN3LOB5OrderEPvEENS_4hashIiEENS_8equal_toIiEENS_9allocatorINS_4pairIKiS6_EEEEED2B7v160006Ev, symObjAddr: 0xA540, symBinAddr: 0x10000CD00, symSize: 0x20 }
  - { offsetInCU: 0x1AFC8, offset: 0x1AFC8, size: 0x8, addend: 0x0, symName: __ZNSt3__112__hash_tableINS_17__hash_value_typeIiNS_15__list_iteratorIPN3LOB5OrderEPvEEEENS_22__unordered_map_hasherIiS8_NS_4hashIiEENS_8equal_toIiEELb1EEENS_21__unordered_map_equalIiS8_SD_SB_Lb1EEENS_9allocatorIS8_EEED1Ev, symObjAddr: 0xA560, symBinAddr: 0x10000CD20, symSize: 0x20 }
  - { offsetInCU: 0x1AFF4, offset: 0x1AFF4, size: 0x8, addend: 0x0, symName: __ZNSt3__112__hash_tableINS_17__hash_value_typeIiNS_15__list_iteratorIPN3LOB5OrderEPvEEEENS_22__unordered_map_hasherIiS8_NS_4hashIiEENS_8equal_toIiEELb1EEENS_21__unordered_map_equalIiS8_SD_SB_Lb1EEENS_9allocatorIS8_EEED2Ev, symObjAddr: 0xA580, symBinAddr: 0x10000CD40, symSize: 0x50 }
  - { offsetInCU: 0x1B020, offset: 0x1B020, size: 0x8, addend: 0x0, symName: __ZNSt3__112__hash_tableINS_17__hash_value_typeIiNS_15__list_iteratorIPN3LOB5OrderEPvEEEENS_22__unordered_map_hasherIiS8_NS_4hashIiEENS_8equal_toIiEELb1EEENS_21__unordered_map_equalIiS8_SD_SB_Lb1EEENS_9allocatorIS8_EEE17__deallocate_nodeEPNS_16__hash_node_baseIPNS_11__hash_nodeIS8_S6_EEEE, symObjAddr: 0xA5D0, symBinAddr: 0x10000CD90, symSize: 0xA0 }
  - { offsetInCU: 0x1B08B, offset: 0x1B08B, size: 0x8, addend: 0x0, symName: __ZNSt3__110unique_ptrIA_PNS_16__hash_node_baseIPNS_11__hash_nodeINS_17__hash_value_typeIiNS_15__list_iteratorIPN3LOB5OrderEPvEEEES8_EEEENS_25__bucket_list_deallocatorINS_9allocatorISE_EEEEED1B7v160006Ev, symObjAddr: 0xA680, symBinAddr: 0x10000CE40, symSize: 0x20 }
  - { offsetInCU: 0x1B0B5, offset: 0x1B0B5, size: 0x8, addend: 0x0, symName: __ZNSt3__110unique_ptrIA_PNS_16__hash_node_baseIPNS_11__hash_nodeINS_17__hash_value_typeIiNS_15__list_iteratorIPN3LOB5OrderEPvEEEES8_EEEENS_25__bucket_list_deallocatorINS_9allocatorISE_EEEEED2B7v160006Ev, symObjAddr: 0xA6A0, symBinAddr: 0x10000CE60, symSize: 0x20 }
  - { offsetInCU: 0x1B0DF, offset: 0x1B0DF, size: 0x8, addend: 0x0, symName: __ZNSt3__110unique_ptrIA_PNS_16__hash_node_baseIPNS_11__hash_nodeINS_17__hash_value_typeIiNS_15__list_iteratorIPN3LOB5OrderEPvEEEES8_EEEENS_25__bucket_list_deallocatorINS_9allocatorISE_EEEEE5resetB7v160006EDn, symObjAddr: 0xA6C0, symBinAddr: 0x10000CE80, symSize: 0x60 }
  - { offsetInCU: 0x1B120, offset: 0x1B120, size: 0x8, addend: 0x0, symName: __ZNSt3__14listIPN3LOB5OrderENS_9allocatorIS3_EEED2Ev, symObjAddr: 0xA720, symBinAddr: 0x10000CEE0, symSize: 0x20 }
  - { offsetInCU: 0x1B14D, offset: 0x1B14D, size: 0x8, addend: 0x0, symName: __ZNSt3__110__list_impIPN3LOB5OrderENS_9allocatorIS3_EEED2Ev, symObjAddr: 0xA740, symBinAddr: 0x10000CF00, symSize: 0x40 }
  - { offsetInCU: 0x1B179, offset: 0x1B179, size: 0x8, addend: 0x0, symName: __ZNSt3__112__hash_tableINS_17__hash_value_typeIiNS_15__list_iteratorIPN3LOB5OrderEPvEEEENS_22__unordered_map_hasherIiS8_NS_4hashIiEENS_8equal_toIiEELb1EEENS_21__unordered_map_equalIiS8_SD_SB_Lb1EEENS_9allocatorIS8_EEE25__emplace_unique_key_argsIiJRKNS_21piecewise_construct_tENS_5tupleIJOiEEENSO_IJEEEEEENS_4pairINS_15__hash_iteratorIPNS_11__hash_nodeIS8_S6_EEEEbEERKT_DpOT0_, symObjAddr: 0xA790, symBinAddr: 0x10000CF50, symSize: 0x5B0 }
  - { offsetInCU: 0x1B282, offset: 0x1B282, size: 0x8, addend: 0x0, symName: __ZNKSt3__115__hash_iteratorIPNS_11__hash_nodeINS_17__hash_value_typeIiNS_15__list_iteratorIPN3LOB5OrderEPvEEEES7_EEEptB7v160006Ev, symObjAddr: 0xAD70, symBinAddr: 0x10000D530, symSize: 0x30 }
  - { offsetInCU: 0x1B2A8, offset: 0x1B2A8, size: 0x8, addend: 0x0, symName: __ZNKSt3__122__unordered_map_hasherIiNS_17__hash_value_typeIiNS_15__list_iteratorIPN3LOB5OrderEPvEEEENS_4hashIiEENS_8equal_toIiEELb1EEclB7v160006ERKi, symObjAddr: 0xADA0, symBinAddr: 0x10000D560, symSize: 0x30 }
  - { offsetInCU: 0x1B2DD, offset: 0x1B2DD, size: 0x8, addend: 0x0, symName: __ZNKSt3__121__unordered_map_equalIiNS_17__hash_value_typeIiNS_15__list_iteratorIPN3LOB5OrderEPvEEEENS_8equal_toIiEENS_4hashIiEELb1EEclB7v160006ERKS8_RKi, symObjAddr: 0xADD0, symBinAddr: 0x10000D590, symSize: 0x40 }
  - { offsetInCU: 0x1B321, offset: 0x1B321, size: 0x8, addend: 0x0, symName: __ZNSt3__112__hash_tableINS_17__hash_value_typeIiNS_15__list_iteratorIPN3LOB5OrderEPvEEEENS_22__unordered_map_hasherIiS8_NS_4hashIiEENS_8equal_toIiEELb1EEENS_21__unordered_map_equalIiS8_SD_SB_Lb1EEENS_9allocatorIS8_EEE21__construct_node_hashIRKNS_21piecewise_construct_tEJNS_5tupleIJOiEEENSO_IJEEEEEENS_10unique_ptrINS_11__hash_nodeIS8_S6_EENS_22__hash_node_destructorINSH_ISU_EEEEEEmOT_DpOT0_, symObjAddr: 0xAE10, symBinAddr: 0x10000D5D0, symSize: 0x150 }
  - { offsetInCU: 0x1B3BD, offset: 0x1B3BD, size: 0x8, addend: 0x0, symName: __ZNSt3__116allocator_traitsINS_9allocatorINS_11__hash_nodeINS_17__hash_value_typeIiNS_15__list_iteratorIPN3LOB5OrderEPvEEEES8_EEEEE9constructB7v160006INS_4pairIKiS9_EEJRKNS_21piecewise_construct_tENS_5tupleIJOiEEENSL_IJEEEEvvEEvRSC_PT_DpOT0_, symObjAddr: 0xAF60, symBinAddr: 0x10000D720, symSize: 0x40 }
  - { offsetInCU: 0x1B43A, offset: 0x1B43A, size: 0x8, addend: 0x0, symName: __ZNSt3__14pairIKiNS_15__list_iteratorIPN3LOB5OrderEPvEEEC1B7v160006IJOiEJEEENS_21piecewise_construct_tENS_5tupleIJDpT_EEENSC_IJDpT0_EEE, symObjAddr: 0xAFF0, symBinAddr: 0x10000D7B0, symSize: 0x40 }
  - { offsetInCU: 0x1B4A1, offset: 0x1B4A1, size: 0x8, addend: 0x0, symName: __ZNSt3__14pairIKiNS_15__list_iteratorIPN3LOB5OrderEPvEEEC1B7v160006IJOiEJEJLm0EEJEEENS_21piecewise_construct_tERNS_5tupleIJDpT_EEERNSC_IJDpT0_EEENS_15__tuple_indicesIJXspT1_EEEENSL_IJXspT2_EEEE, symObjAddr: 0xB030, symBinAddr: 0x10000D7F0, symSize: 0x30 }
  - { offsetInCU: 0x1B531, offset: 0x1B531, size: 0x8, addend: 0x0, symName: __ZNSt3__14pairIKiNS_15__list_iteratorIPN3LOB5OrderEPvEEEC2B7v160006IJOiEJEJLm0EEJEEENS_21piecewise_construct_tERNS_5tupleIJDpT_EEERNSC_IJDpT0_EEENS_15__tuple_indicesIJXspT1_EEEENSL_IJXspT2_EEEE, symObjAddr: 0xB060, symBinAddr: 0x10000D820, symSize: 0x40 }
  - { offsetInCU: 0x1B5C1, offset: 0x1B5C1, size: 0x8, addend: 0x0, symName: __ZNSt3__115__list_iteratorIPN3LOB5OrderEPvEC1B7v160006Ev, symObjAddr: 0xB0C0, symBinAddr: 0x10000D880, symSize: 0x20 }
  - { offsetInCU: 0x1B5EB, offset: 0x1B5EB, size: 0x8, addend: 0x0, symName: __ZNSt3__112__tuple_leafILm0EOiLb0EE3getB7v160006Ev, symObjAddr: 0xB0E0, symBinAddr: 0x10000D8A0, symSize: 0x20 }
  - { offsetInCU: 0x1B611, offset: 0x1B611, size: 0x8, addend: 0x0, symName: __ZNSt3__115__list_iteratorIPN3LOB5OrderEPvEC2B7v160006Ev, symObjAddr: 0xB100, symBinAddr: 0x10000D8C0, symSize: 0x30 }
  - { offsetInCU: 0x1B63B, offset: 0x1B63B, size: 0x8, addend: 0x0, symName: __ZNSt3__15tupleIJOiEEC1B7v160006IJiELi0EEEDpOT_, symObjAddr: 0xB140, symBinAddr: 0x10000D900, symSize: 0x30 }
  - { offsetInCU: 0x1B685, offset: 0x1B685, size: 0x8, addend: 0x0, symName: __ZNSt3__15tupleIJOiEEC2B7v160006IJiELi0EEEDpOT_, symObjAddr: 0xB170, symBinAddr: 0x10000D930, symSize: 0x30 }
  - { offsetInCU: 0x1B6CF, offset: 0x1B6CF, size: 0x8, addend: 0x0, symName: __ZNSt3__112__tuple_implINS_15__tuple_indicesIJLm0EEEEJOiEEC1B7v160006IJLm0EEJS3_EJEJEJiEEENS1_IJXspT_EEEENS_13__tuple_typesIJDpT0_EEENS1_IJXspT1_EEEENS7_IJDpT2_EEEDpOT3_, symObjAddr: 0xB1A0, symBinAddr: 0x10000D960, symSize: 0x30 }
  - { offsetInCU: 0x1B764, offset: 0x1B764, size: 0x8, addend: 0x0, symName: __ZNSt3__112__tuple_implINS_15__tuple_indicesIJLm0EEEEJOiEEC2B7v160006IJLm0EEJS3_EJEJEJiEEENS1_IJXspT_EEEENS_13__tuple_typesIJDpT0_EEENS1_IJXspT1_EEEENS7_IJDpT2_EEEDpOT3_, symObjAddr: 0xB1D0, symBinAddr: 0x10000D990, symSize: 0x30 }
  - { offsetInCU: 0x1B7F9, offset: 0x1B7F9, size: 0x8, addend: 0x0, symName: __ZNSt3__112__tuple_leafILm0EOiLb0EEC2B7v160006IivEEOT_, symObjAddr: 0xB200, symBinAddr: 0x10000D9C0, symSize: 0x20 }
  - { offsetInCU: 0x1B83C, offset: 0x1B83C, size: 0x8, addend: 0x0, symName: __ZNSt3__114pointer_traitsIPNS_17__hash_value_typeIiNS_15__list_iteratorIPN3LOB5OrderEPvEEEEE10pointer_toB7v160006ERS8_, symObjAddr: 0xB220, symBinAddr: 0x10000D9E0, symSize: 0x10 }
  - { offsetInCU: 0x1B85F, offset: 0x1B85F, size: 0x8, addend: 0x0, symName: __ZNSt3__112__hash_tableINS_17__hash_value_typeIiNS_15__list_iteratorIPN3LOB5OrderEPvEEEENS_22__unordered_map_hasherIiS8_NS_4hashIiEENS_8equal_toIiEELb1EEENS_21__unordered_map_equalIiS8_SD_SB_Lb1EEENS_9allocatorIS8_EEE14__erase_uniqueIiEEmRKT_, symObjAddr: 0xB230, symBinAddr: 0x10000D9F0, symSize: 0x90 }
  - { offsetInCU: 0x1B8AE, offset: 0x1B8AE, size: 0x8, addend: 0x0, symName: __ZNSt3__112__hash_tableINS_17__hash_value_typeIiNS_15__list_iteratorIPN3LOB5OrderEPvEEEENS_22__unordered_map_hasherIiS8_NS_4hashIiEENS_8equal_toIiEELb1EEENS_21__unordered_map_equalIiS8_SD_SB_Lb1EEENS_9allocatorIS8_EEE4findIiEENS_15__hash_iteratorIPNS_11__hash_nodeIS8_S6_EEEERKT_, symObjAddr: 0xB2C0, symBinAddr: 0x10000DA80, symSize: 0x180 }
  - { offsetInCU: 0x1B938, offset: 0x1B938, size: 0x8, addend: 0x0, symName: __ZNSt3__112__hash_tableINS_17__hash_value_typeIiNS_15__list_iteratorIPN3LOB5OrderEPvEEEENS_22__unordered_map_hasherIiS8_NS_4hashIiEENS_8equal_toIiEELb1EEENS_21__unordered_map_equalIiS8_SD_SB_Lb1EEENS_9allocatorIS8_EEE3endEv, symObjAddr: 0xB470, symBinAddr: 0x10000DC30, symSize: 0x30 }
  - { offsetInCU: 0x1B960, offset: 0x1B960, size: 0x8, addend: 0x0, symName: __ZNSt3__112__hash_tableINS_17__hash_value_typeIiNS_15__list_iteratorIPN3LOB5OrderEPvEEEENS_22__unordered_map_hasherIiS8_NS_4hashIiEENS_8equal_toIiEELb1EEENS_21__unordered_map_equalIiS8_SD_SB_Lb1EEENS_9allocatorIS8_EEE5eraseENS_21__hash_const_iteratorIPNS_11__hash_nodeIS8_S6_EEEE, symObjAddr: 0xB4A0, symBinAddr: 0x10000DC60, symSize: 0x70 }
  - { offsetInCU: 0x1B9B5, offset: 0x1B9B5, size: 0x8, addend: 0x0, symName: __ZNSt3__121__hash_const_iteratorIPNS_11__hash_nodeINS_17__hash_value_typeIiNS_15__list_iteratorIPN3LOB5OrderEPvEEEES7_EEEC1B7v160006ERKNS_15__hash_iteratorISB_EE, symObjAddr: 0xB510, symBinAddr: 0x10000DCD0, symSize: 0x30 }
  - { offsetInCU: 0x1B9EE, offset: 0x1B9EE, size: 0x8, addend: 0x0, symName: __ZNSt3__115__hash_iteratorIPNS_11__hash_nodeINS_17__hash_value_typeIiNS_15__list_iteratorIPN3LOB5OrderEPvEEEES7_EEEppB7v160006Ev, symObjAddr: 0xB540, symBinAddr: 0x10000DD00, symSize: 0x20 }
  - { offsetInCU: 0x1BA14, offset: 0x1BA14, size: 0x8, addend: 0x0, symName: __ZNSt3__112__hash_tableINS_17__hash_value_typeIiNS_15__list_iteratorIPN3LOB5OrderEPvEEEENS_22__unordered_map_hasherIiS8_NS_4hashIiEENS_8equal_toIiEELb1EEENS_21__unordered_map_equalIiS8_SD_SB_Lb1EEENS_9allocatorIS8_EEE6removeENS_21__hash_const_iteratorIPNS_11__hash_nodeIS8_S6_EEEE, symObjAddr: 0xB560, symBinAddr: 0x10000DD20, symSize: 0x1F0 }
  - { offsetInCU: 0x1BAA4, offset: 0x1BAA4, size: 0x8, addend: 0x0, symName: __ZNSt3__121__hash_const_iteratorIPNS_11__hash_nodeINS_17__hash_value_typeIiNS_15__list_iteratorIPN3LOB5OrderEPvEEEES7_EEEC2B7v160006ERKNS_15__hash_iteratorISB_EE, symObjAddr: 0xB750, symBinAddr: 0x10000DF10, symSize: 0x20 }
  - { offsetInCU: 0x1BADD, offset: 0x1BADD, size: 0x8, addend: 0x0, symName: __ZNSt3__121__list_const_iteratorIPN3LOB5OrderEPvEC2B7v160006ERKNS_15__list_iteratorIS3_S4_EE, symObjAddr: 0xB770, symBinAddr: 0x10000DF30, symSize: 0x20 }
  - { offsetInCU: 0x687F, offset: 0x22623, size: 0x8, addend: 0x0, symName: __ZNSt3__119__debug_db_insert_cB7v160006INS_13unordered_mapIyN3LOB5OrderENS_4hashIyEENS_8equal_toIyEENS_9allocatorINS_4pairIKyS3_EEEEEEEEvPT_, symObjAddr: 0x7D0, symBinAddr: 0x10000E730, symSize: 0x10 }
  - { offsetInCU: 0x68B0, offset: 0x22654, size: 0x8, addend: 0x0, symName: __ZNSt3__118__debug_db_erase_cB7v160006INS_12__hash_tableINS_17__hash_value_typeIyN3LOB5OrderEEENS_22__unordered_map_hasherIyS5_NS_4hashIyEENS_8equal_toIyEELb1EEENS_21__unordered_map_equalIyS5_SA_S8_Lb1EEENS_9allocatorIS5_EEEEEEvPT_, symObjAddr: 0xED0, symBinAddr: 0x10000ED50, symSize: 0x10 }
  - { offsetInCU: 0x6A91, offset: 0x22835, size: 0x8, addend: 0x0, symName: __ZNSt3__118generate_canonicalB7v160006IdLm53ENS_26linear_congruential_engineIjLj48271ELj0ELj2147483647EEEEET_RT1_, symObjAddr: 0x1C80, symBinAddr: 0x10000F3A0, symSize: 0x100 }
  - { offsetInCU: 0x8F21, offset: 0x24CC5, size: 0x8, addend: 0x0, symName: _main, symObjAddr: 0x0, symBinAddr: 0x10000E010, symSize: 0x1F0 }
  - { offsetInCU: 0x9216, offset: 0x24FBA, size: 0x8, addend: 0x0, symName: __ZN3LOB14LimitOrderBookC1Ev, symObjAddr: 0x1F0, symBinAddr: 0x10000E200, symSize: 0x20 }
  - { offsetInCU: 0x9240, offset: 0x24FE4, size: 0x8, addend: 0x0, symName: __ZNSt3__126linear_congruential_engineIjLj48271ELj0ELj2147483647EEC1B7v160006Ev, symObjAddr: 0x210, symBinAddr: 0x10000E220, symSize: 0x20 }
  - { offsetInCU: 0x928D, offset: 0x25031, size: 0x8, addend: 0x0, symName: __ZNSt3__119normal_distributionIdEC1B7v160006Edd, symObjAddr: 0x230, symBinAddr: 0x10000E240, symSize: 0x30 }
  - { offsetInCU: 0x92D8, offset: 0x2507C, size: 0x8, addend: 0x0, symName: __ZNSt3__119normal_distributionIdEclB7v160006INS_26linear_congruential_engineIjLj48271ELj0ELj2147483647EEEEEdRT_, symObjAddr: 0x260, symBinAddr: 0x10000E270, symSize: 0x30 }
  - { offsetInCU: 0x9315, offset: 0x250B9, size: 0x8, addend: 0x0, symName: __ZN3LOB14LimitOrderBookD1Ev, symObjAddr: 0x290, symBinAddr: 0x10000E2A0, symSize: 0x20 }
  - { offsetInCU: 0x9341, offset: 0x250E5, size: 0x8, addend: 0x0, symName: __ZN3LOB14LimitOrderBookC2Ev, symObjAddr: 0x2B0, symBinAddr: 0x10000E2C0, symSize: 0x60 }
  - { offsetInCU: 0x936B, offset: 0x2510F, size: 0x8, addend: 0x0, symName: __ZN3LOB9LimitTreeILNS_4SideE1EEC1Ev, symObjAddr: 0x310, symBinAddr: 0x10000E320, symSize: 0x20 }
  - { offsetInCU: 0x9397, offset: 0x2513B, size: 0x8, addend: 0x0, symName: __ZN3LOB9LimitTreeILNS_4SideE0EEC1Ev, symObjAddr: 0x330, symBinAddr: 0x10000E340, symSize: 0x20 }
  - { offsetInCU: 0x93C3, offset: 0x25167, size: 0x8, addend: 0x0, symName: __ZNSt3__113unordered_mapIyN3LOB5OrderENS_4hashIyEENS_8equal_toIyEENS_9allocatorINS_4pairIKyS2_EEEEEC1B7v160006Ev, symObjAddr: 0x350, symBinAddr: 0x10000E360, symSize: 0x20 }
  - { offsetInCU: 0x93ED, offset: 0x25191, size: 0x8, addend: 0x0, symName: __ZN3LOB9LimitTreeILNS_4SideE1EEC2Ev, symObjAddr: 0x370, symBinAddr: 0x10000E380, symSize: 0x50 }
  - { offsetInCU: 0x9419, offset: 0x251BD, size: 0x8, addend: 0x0, symName: __ZNSt3__13mapIyPN3LOB5LimitENS_4lessIyEENS_9allocatorINS_4pairIKyS3_EEEEEC1B7v160006Ev, symObjAddr: 0x3C0, symBinAddr: 0x10000E3D0, symSize: 0x20 }
  - { offsetInCU: 0x9443, offset: 0x251E7, size: 0x8, addend: 0x0, symName: __ZNSt3__13mapIyPN3LOB5LimitENS_4lessIyEENS_9allocatorINS_4pairIKyS3_EEEEEC2B7v160006Ev, symObjAddr: 0x3E0, symBinAddr: 0x10000E3F0, symSize: 0x30 }
  - { offsetInCU: 0x946D, offset: 0x25211, size: 0x8, addend: 0x0, symName: __ZNSt3__119__map_value_compareIyNS_12__value_typeIyPN3LOB5LimitEEENS_4lessIyEELb1EEC1B7v160006ES7_, symObjAddr: 0x410, symBinAddr: 0x10000E420, symSize: 0x20 }
  - { offsetInCU: 0x94A6, offset: 0x2524A, size: 0x8, addend: 0x0, symName: __ZNSt3__16__treeINS_12__value_typeIyPN3LOB5LimitEEENS_19__map_value_compareIyS5_NS_4lessIyEELb1EEENS_9allocatorIS5_EEEC1ERKS9_, symObjAddr: 0x430, symBinAddr: 0x10000E440, symSize: 0x30 }
  - { offsetInCU: 0x94E1, offset: 0x25285, size: 0x8, addend: 0x0, symName: __ZNSt3__119__map_value_compareIyNS_12__value_typeIyPN3LOB5LimitEEENS_4lessIyEELb1EEC2B7v160006ES7_, symObjAddr: 0x460, symBinAddr: 0x10000E470, symSize: 0x10 }
  - { offsetInCU: 0x951A, offset: 0x252BE, size: 0x8, addend: 0x0, symName: __ZNSt3__16__treeINS_12__value_typeIyPN3LOB5LimitEEENS_19__map_value_compareIyS5_NS_4lessIyEELb1EEENS_9allocatorIS5_EEEC2ERKS9_, symObjAddr: 0x470, symBinAddr: 0x10000E480, symSize: 0x80 }
  - { offsetInCU: 0x9555, offset: 0x252F9, size: 0x8, addend: 0x0, symName: __ZNSt3__117__compressed_pairINS_15__tree_end_nodeIPNS_16__tree_node_baseIPvEEEENS_9allocatorINS_11__tree_nodeINS_12__value_typeIyPN3LOB5LimitEEES3_EEEEEC1B7v160006ILb1EvEEv, symObjAddr: 0x4F0, symBinAddr: 0x10000E500, symSize: 0x20 }
  - { offsetInCU: 0x958F, offset: 0x25333, size: 0x8, addend: 0x0, symName: __ZNSt3__117__compressed_pairImNS_19__map_value_compareIyNS_12__value_typeIyPN3LOB5LimitEEENS_4lessIyEELb1EEEEC1B7v160006IiRKS9_EEOT_OT0_, symObjAddr: 0x520, symBinAddr: 0x10000E520, symSize: 0x30 }
  - { offsetInCU: 0x95E7, offset: 0x2538B, size: 0x8, addend: 0x0, symName: __ZNSt3__117__compressed_pairINS_15__tree_end_nodeIPNS_16__tree_node_baseIPvEEEENS_9allocatorINS_11__tree_nodeINS_12__value_typeIyPN3LOB5LimitEEES3_EEEEEC2B7v160006ILb1EvEEv, symObjAddr: 0x590, symBinAddr: 0x10000E550, symSize: 0x30 }
  - { offsetInCU: 0x961C, offset: 0x253C0, size: 0x8, addend: 0x0, symName: __ZNSt3__122__compressed_pair_elemINS_15__tree_end_nodeIPNS_16__tree_node_baseIPvEEEELi0ELb0EEC2B7v160006ENS_16__value_init_tagE, symObjAddr: 0x5C0, symBinAddr: 0x10000E580, symSize: 0x20 }
  - { offsetInCU: 0x9650, offset: 0x253F4, size: 0x8, addend: 0x0, symName: __ZNSt3__122__compressed_pair_elemINS_9allocatorINS_11__tree_nodeINS_12__value_typeIyPN3LOB5LimitEEEPvEEEELi1ELb1EEC2B7v160006ENS_16__value_init_tagE, symObjAddr: 0x5E0, symBinAddr: 0x10000E5A0, symSize: 0x20 }
  - { offsetInCU: 0x9684, offset: 0x25428, size: 0x8, addend: 0x0, symName: __ZNSt3__115__tree_end_nodeIPNS_16__tree_node_baseIPvEEEC1B7v160006Ev, symObjAddr: 0x600, symBinAddr: 0x10000E5C0, symSize: 0x20 }
  - { offsetInCU: 0x96AE, offset: 0x25452, size: 0x8, addend: 0x0, symName: __ZNSt3__115__tree_end_nodeIPNS_16__tree_node_baseIPvEEEC2B7v160006Ev, symObjAddr: 0x620, symBinAddr: 0x10000E5E0, symSize: 0x20 }
  - { offsetInCU: 0x96D8, offset: 0x2547C, size: 0x8, addend: 0x0, symName: __ZNSt3__19allocatorINS_11__tree_nodeINS_12__value_typeIyPN3LOB5LimitEEEPvEEEC2B7v160006Ev, symObjAddr: 0x640, symBinAddr: 0x10000E600, symSize: 0x20 }
  - { offsetInCU: 0x9702, offset: 0x254A6, size: 0x8, addend: 0x0, symName: __ZNSt3__116__non_trivial_ifILb1ENS_9allocatorINS_11__tree_nodeINS_12__value_typeIyPN3LOB5LimitEEEPvEEEEEC2B7v160006Ev, symObjAddr: 0x660, symBinAddr: 0x10000E620, symSize: 0x10 }
  - { offsetInCU: 0x972C, offset: 0x254D0, size: 0x8, addend: 0x0, symName: __ZNSt3__117__compressed_pairImNS_19__map_value_compareIyNS_12__value_typeIyPN3LOB5LimitEEENS_4lessIyEELb1EEEEC2B7v160006IiRKS9_EEOT_OT0_, symObjAddr: 0x670, symBinAddr: 0x10000E630, symSize: 0x40 }
  - { offsetInCU: 0x9784, offset: 0x25528, size: 0x8, addend: 0x0, symName: __ZNSt3__122__compressed_pair_elemINS_19__map_value_compareIyNS_12__value_typeIyPN3LOB5LimitEEENS_4lessIyEELb1EEELi1ELb1EEC2B7v160006IRKS9_vEEOT_, symObjAddr: 0x6D0, symBinAddr: 0x10000E670, symSize: 0x10 }
  - { offsetInCU: 0x97C6, offset: 0x2556A, size: 0x8, addend: 0x0, symName: __ZN3LOB9LimitTreeILNS_4SideE0EEC2Ev, symObjAddr: 0x720, symBinAddr: 0x10000E680, symSize: 0x50 }
  - { offsetInCU: 0x97F2, offset: 0x25596, size: 0x8, addend: 0x0, symName: __ZNSt3__113unordered_mapIyN3LOB5OrderENS_4hashIyEENS_8equal_toIyEENS_9allocatorINS_4pairIKyS2_EEEEEC2B7v160006Ev, symObjAddr: 0x770, symBinAddr: 0x10000E6D0, symSize: 0x40 }
  - { offsetInCU: 0x981C, offset: 0x255C0, size: 0x8, addend: 0x0, symName: __ZNSt3__112__hash_tableINS_17__hash_value_typeIyN3LOB5OrderEEENS_22__unordered_map_hasherIyS4_NS_4hashIyEENS_8equal_toIyEELb1EEENS_21__unordered_map_equalIyS4_S9_S7_Lb1EEENS_9allocatorIS4_EEEC1Ev, symObjAddr: 0x7B0, symBinAddr: 0x10000E710, symSize: 0x20 }
  - { offsetInCU: 0x9848, offset: 0x255EC, size: 0x8, addend: 0x0, symName: __ZNSt3__112__hash_tableINS_17__hash_value_typeIyN3LOB5OrderEEENS_22__unordered_map_hasherIyS4_NS_4hashIyEENS_8equal_toIyEELb1EEENS_21__unordered_map_equalIyS4_S9_S7_Lb1EEENS_9allocatorIS4_EEEC2Ev, symObjAddr: 0x7E0, symBinAddr: 0x10000E740, symSize: 0x80 }
  - { offsetInCU: 0x9874, offset: 0x25618, size: 0x8, addend: 0x0, symName: __ZNSt3__110unique_ptrIA_PNS_16__hash_node_baseIPNS_11__hash_nodeINS_17__hash_value_typeIyN3LOB5OrderEEEPvEEEENS_25__bucket_list_deallocatorINS_9allocatorISB_EEEEEC1B7v160006ILb1EvEEv, symObjAddr: 0x860, symBinAddr: 0x10000E7C0, symSize: 0x20 }
  - { offsetInCU: 0x98A9, offset: 0x2564D, size: 0x8, addend: 0x0, symName: __ZNSt3__117__compressed_pairINS_16__hash_node_baseIPNS_11__hash_nodeINS_17__hash_value_typeIyN3LOB5OrderEEEPvEEEENS_9allocatorIS8_EEEC1B7v160006ILb1EvEEv, symObjAddr: 0x880, symBinAddr: 0x10000E7E0, symSize: 0x20 }
  - { offsetInCU: 0x98E3, offset: 0x25687, size: 0x8, addend: 0x0, symName: __ZNSt3__117__compressed_pairImNS_22__unordered_map_hasherIyNS_17__hash_value_typeIyN3LOB5OrderEEENS_4hashIyEENS_8equal_toIyEELb1EEEEC1B7v160006IiNS_18__default_init_tagEEEOT_OT0_, symObjAddr: 0x8A0, symBinAddr: 0x10000E800, symSize: 0x30 }
  - { offsetInCU: 0x9940, offset: 0x256E4, size: 0x8, addend: 0x0, symName: __ZNSt3__117__compressed_pairIfNS_21__unordered_map_equalIyNS_17__hash_value_typeIyN3LOB5OrderEEENS_8equal_toIyEENS_4hashIyEELb1EEEEC1B7v160006IfNS_18__default_init_tagEEEOT_OT0_, symObjAddr: 0x8D0, symBinAddr: 0x10000E830, symSize: 0x30 }
  - { offsetInCU: 0x9998, offset: 0x2573C, size: 0x8, addend: 0x0, symName: __ZNSt3__110unique_ptrIA_PNS_16__hash_node_baseIPNS_11__hash_nodeINS_17__hash_value_typeIyN3LOB5OrderEEEPvEEEENS_25__bucket_list_deallocatorINS_9allocatorISB_EEEEEC2B7v160006ILb1EvEEv, symObjAddr: 0x900, symBinAddr: 0x10000E860, symSize: 0x30 }
  - { offsetInCU: 0x99D2, offset: 0x25776, size: 0x8, addend: 0x0, symName: __ZNSt3__117__compressed_pairIPPNS_16__hash_node_baseIPNS_11__hash_nodeINS_17__hash_value_typeIyN3LOB5OrderEEEPvEEEENS_25__bucket_list_deallocatorINS_9allocatorISB_EEEEEC1B7v160006INS_16__value_init_tagESJ_EEOT_OT0_, symObjAddr: 0x930, symBinAddr: 0x10000E890, symSize: 0x30 }
  - { offsetInCU: 0x9A2A, offset: 0x257CE, size: 0x8, addend: 0x0, symName: __ZNSt3__117__compressed_pairIPPNS_16__hash_node_baseIPNS_11__hash_nodeINS_17__hash_value_typeIyN3LOB5OrderEEEPvEEEENS_25__bucket_list_deallocatorINS_9allocatorISB_EEEEEC2B7v160006INS_16__value_init_tagESJ_EEOT_OT0_, symObjAddr: 0x960, symBinAddr: 0x10000E8C0, symSize: 0x40 }
  - { offsetInCU: 0x9A82, offset: 0x25826, size: 0x8, addend: 0x0, symName: __ZNSt3__122__compressed_pair_elemIPPNS_16__hash_node_baseIPNS_11__hash_nodeINS_17__hash_value_typeIyN3LOB5OrderEEEPvEEEELi0ELb0EEC2B7v160006ENS_16__value_init_tagE, symObjAddr: 0x9A0, symBinAddr: 0x10000E900, symSize: 0x20 }
  - { offsetInCU: 0x9AB6, offset: 0x2585A, size: 0x8, addend: 0x0, symName: __ZNSt3__122__compressed_pair_elemINS_25__bucket_list_deallocatorINS_9allocatorIPNS_16__hash_node_baseIPNS_11__hash_nodeINS_17__hash_value_typeIyN3LOB5OrderEEEPvEEEEEEEELi1ELb0EEC2B7v160006ENS_16__value_init_tagE, symObjAddr: 0x9C0, symBinAddr: 0x10000E920, symSize: 0x20 }
  - { offsetInCU: 0x9AEA, offset: 0x2588E, size: 0x8, addend: 0x0, symName: __ZNSt3__125__bucket_list_deallocatorINS_9allocatorIPNS_16__hash_node_baseIPNS_11__hash_nodeINS_17__hash_value_typeIyN3LOB5OrderEEEPvEEEEEEEC1B7v160006Ev, symObjAddr: 0x9E0, symBinAddr: 0x10000E940, symSize: 0x20 }
  - { offsetInCU: 0x9B14, offset: 0x258B8, size: 0x8, addend: 0x0, symName: __ZNSt3__125__bucket_list_deallocatorINS_9allocatorIPNS_16__hash_node_baseIPNS_11__hash_nodeINS_17__hash_value_typeIyN3LOB5OrderEEEPvEEEEEEEC2B7v160006Ev, symObjAddr: 0xA00, symBinAddr: 0x10000E960, symSize: 0x40 }
  - { offsetInCU: 0x9B3E, offset: 0x258E2, size: 0x8, addend: 0x0, symName: __ZNSt3__117__compressed_pairImNS_9allocatorIPNS_16__hash_node_baseIPNS_11__hash_nodeINS_17__hash_value_typeIyN3LOB5OrderEEEPvEEEEEEEC1B7v160006IiNS_18__default_init_tagEEEOT_OT0_, symObjAddr: 0xA40, symBinAddr: 0x10000E9A0, symSize: 0x30 }
  - { offsetInCU: 0x9B96, offset: 0x2593A, size: 0x8, addend: 0x0, symName: __ZNSt3__117__compressed_pairImNS_9allocatorIPNS_16__hash_node_baseIPNS_11__hash_nodeINS_17__hash_value_typeIyN3LOB5OrderEEEPvEEEEEEEC2B7v160006IiNS_18__default_init_tagEEEOT_OT0_, symObjAddr: 0xA70, symBinAddr: 0x10000E9D0, symSize: 0x40 }
  - { offsetInCU: 0x9BEE, offset: 0x25992, size: 0x8, addend: 0x0, symName: __ZNSt3__122__compressed_pair_elemINS_9allocatorIPNS_16__hash_node_baseIPNS_11__hash_nodeINS_17__hash_value_typeIyN3LOB5OrderEEEPvEEEEEELi1ELb1EEC2B7v160006ENS_18__default_init_tagE, symObjAddr: 0xAB0, symBinAddr: 0x10000EA10, symSize: 0x20 }
  - { offsetInCU: 0x9C22, offset: 0x259C6, size: 0x8, addend: 0x0, symName: __ZNSt3__19allocatorIPNS_16__hash_node_baseIPNS_11__hash_nodeINS_17__hash_value_typeIyN3LOB5OrderEEEPvEEEEEC2B7v160006Ev, symObjAddr: 0xAD0, symBinAddr: 0x10000EA30, symSize: 0x20 }
  - { offsetInCU: 0x9C4C, offset: 0x259F0, size: 0x8, addend: 0x0, symName: __ZNSt3__116__non_trivial_ifILb1ENS_9allocatorIPNS_16__hash_node_baseIPNS_11__hash_nodeINS_17__hash_value_typeIyN3LOB5OrderEEEPvEEEEEEEC2B7v160006Ev, symObjAddr: 0xAF0, symBinAddr: 0x10000EA50, symSize: 0x10 }
  - { offsetInCU: 0x9C76, offset: 0x25A1A, size: 0x8, addend: 0x0, symName: __ZNSt3__117__compressed_pairINS_16__hash_node_baseIPNS_11__hash_nodeINS_17__hash_value_typeIyN3LOB5OrderEEEPvEEEENS_9allocatorIS8_EEEC2B7v160006ILb1EvEEv, symObjAddr: 0xB00, symBinAddr: 0x10000EA60, symSize: 0x30 }
  - { offsetInCU: 0x9CAB, offset: 0x25A4F, size: 0x8, addend: 0x0, symName: __ZNSt3__122__compressed_pair_elemINS_16__hash_node_baseIPNS_11__hash_nodeINS_17__hash_value_typeIyN3LOB5OrderEEEPvEEEELi0ELb0EEC2B7v160006ENS_16__value_init_tagE, symObjAddr: 0xB30, symBinAddr: 0x10000EA90, symSize: 0x20 }
  - { offsetInCU: 0x9CDF, offset: 0x25A83, size: 0x8, addend: 0x0, symName: __ZNSt3__122__compressed_pair_elemINS_9allocatorINS_11__hash_nodeINS_17__hash_value_typeIyN3LOB5OrderEEEPvEEEELi1ELb1EEC2B7v160006ENS_16__value_init_tagE, symObjAddr: 0xB50, symBinAddr: 0x10000EAB0, symSize: 0x20 }
  - { offsetInCU: 0x9D13, offset: 0x25AB7, size: 0x8, addend: 0x0, symName: __ZNSt3__116__hash_node_baseIPNS_11__hash_nodeINS_17__hash_value_typeIyN3LOB5OrderEEEPvEEEC1B7v160006Ev, symObjAddr: 0xB70, symBinAddr: 0x10000EAD0, symSize: 0x20 }
  - { offsetInCU: 0x9D3D, offset: 0x25AE1, size: 0x8, addend: 0x0, symName: __ZNSt3__116__hash_node_baseIPNS_11__hash_nodeINS_17__hash_value_typeIyN3LOB5OrderEEEPvEEEC2B7v160006Ev, symObjAddr: 0xB90, symBinAddr: 0x10000EAF0, symSize: 0x20 }
  - { offsetInCU: 0x9D67, offset: 0x25B0B, size: 0x8, addend: 0x0, symName: __ZNSt3__19allocatorINS_11__hash_nodeINS_17__hash_value_typeIyN3LOB5OrderEEEPvEEEC2B7v160006Ev, symObjAddr: 0xBB0, symBinAddr: 0x10000EB10, symSize: 0x20 }
  - { offsetInCU: 0x9D91, offset: 0x25B35, size: 0x8, addend: 0x0, symName: __ZNSt3__116__non_trivial_ifILb1ENS_9allocatorINS_11__hash_nodeINS_17__hash_value_typeIyN3LOB5OrderEEEPvEEEEEC2B7v160006Ev, symObjAddr: 0xBD0, symBinAddr: 0x10000EB30, symSize: 0x10 }
  - { offsetInCU: 0x9DBB, offset: 0x25B5F, size: 0x8, addend: 0x0, symName: __ZNSt3__117__compressed_pairImNS_22__unordered_map_hasherIyNS_17__hash_value_typeIyN3LOB5OrderEEENS_4hashIyEENS_8equal_toIyEELb1EEEEC2B7v160006IiNS_18__default_init_tagEEEOT_OT0_, symObjAddr: 0xBE0, symBinAddr: 0x10000EB40, symSize: 0x40 }
  - { offsetInCU: 0x9E13, offset: 0x25BB7, size: 0x8, addend: 0x0, symName: __ZNSt3__122__compressed_pair_elemINS_22__unordered_map_hasherIyNS_17__hash_value_typeIyN3LOB5OrderEEENS_4hashIyEENS_8equal_toIyEELb1EEELi1ELb1EEC2B7v160006ENS_18__default_init_tagE, symObjAddr: 0xC20, symBinAddr: 0x10000EB80, symSize: 0x20 }
  - { offsetInCU: 0x9E47, offset: 0x25BEB, size: 0x8, addend: 0x0, symName: __ZNSt3__122__unordered_map_hasherIyNS_17__hash_value_typeIyN3LOB5OrderEEENS_4hashIyEENS_8equal_toIyEELb1EEC2B7v160006Ev, symObjAddr: 0xC40, symBinAddr: 0x10000EBA0, symSize: 0x10 }
  - { offsetInCU: 0x9E71, offset: 0x25C15, size: 0x8, addend: 0x0, symName: __ZNSt3__117__compressed_pairIfNS_21__unordered_map_equalIyNS_17__hash_value_typeIyN3LOB5OrderEEENS_8equal_toIyEENS_4hashIyEELb1EEEEC2B7v160006IfNS_18__default_init_tagEEEOT_OT0_, symObjAddr: 0xC50, symBinAddr: 0x10000EBB0, symSize: 0x40 }
  - { offsetInCU: 0x9EC9, offset: 0x25C6D, size: 0x8, addend: 0x0, symName: __ZNSt3__122__compressed_pair_elemINS_21__unordered_map_equalIyNS_17__hash_value_typeIyN3LOB5OrderEEENS_8equal_toIyEENS_4hashIyEELb1EEELi1ELb1EEC2B7v160006ENS_18__default_init_tagE, symObjAddr: 0xCB0, symBinAddr: 0x10000EBF0, symSize: 0x20 }
  - { offsetInCU: 0x9EFD, offset: 0x25CA1, size: 0x8, addend: 0x0, symName: __ZNSt3__121__unordered_map_equalIyNS_17__hash_value_typeIyN3LOB5OrderEEENS_8equal_toIyEENS_4hashIyEELb1EEC2B7v160006Ev, symObjAddr: 0xCD0, symBinAddr: 0x10000EC10, symSize: 0x10 }
  - { offsetInCU: 0x9F27, offset: 0x25CCB, size: 0x8, addend: 0x0, symName: __ZN3LOB14LimitOrderBookD2Ev, symObjAddr: 0xCE0, symBinAddr: 0x10000EC20, symSize: 0x40 }
  - { offsetInCU: 0x9F53, offset: 0x25CF7, size: 0x8, addend: 0x0, symName: __ZNSt3__113unordered_mapIyN3LOB5OrderENS_4hashIyEENS_8equal_toIyEENS_9allocatorINS_4pairIKyS2_EEEEED1B7v160006Ev, symObjAddr: 0xD20, symBinAddr: 0x10000EC60, symSize: 0x20 }
  - { offsetInCU: 0x9F7D, offset: 0x25D21, size: 0x8, addend: 0x0, symName: __ZN3LOB9LimitTreeILNS_4SideE0EED1Ev, symObjAddr: 0xD40, symBinAddr: 0x10000EC80, symSize: 0x20 }
  - { offsetInCU: 0x9FA9, offset: 0x25D4D, size: 0x8, addend: 0x0, symName: __ZN3LOB9LimitTreeILNS_4SideE1EED1Ev, symObjAddr: 0xD60, symBinAddr: 0x10000ECA0, symSize: 0x20 }
  - { offsetInCU: 0x9FD5, offset: 0x25D79, size: 0x8, addend: 0x0, symName: __ZNSt3__113unordered_mapIyN3LOB5OrderENS_4hashIyEENS_8equal_toIyEENS_9allocatorINS_4pairIKyS2_EEEEED2B7v160006Ev, symObjAddr: 0xD80, symBinAddr: 0x10000ECC0, symSize: 0x20 }
  - { offsetInCU: 0x9FFF, offset: 0x25DA3, size: 0x8, addend: 0x0, symName: __ZNSt3__112__hash_tableINS_17__hash_value_typeIyN3LOB5OrderEEENS_22__unordered_map_hasherIyS4_NS_4hashIyEENS_8equal_toIyEELb1EEENS_21__unordered_map_equalIyS4_S9_S7_Lb1EEENS_9allocatorIS4_EEED1Ev, symObjAddr: 0xDA0, symBinAddr: 0x10000ECE0, symSize: 0x20 }
  - { offsetInCU: 0xA02B, offset: 0x25DCF, size: 0x8, addend: 0x0, symName: __ZNSt3__112__hash_tableINS_17__hash_value_typeIyN3LOB5OrderEEENS_22__unordered_map_hasherIyS4_NS_4hashIyEENS_8equal_toIyEELb1EEENS_21__unordered_map_equalIyS4_S9_S7_Lb1EEENS_9allocatorIS4_EEED2Ev, symObjAddr: 0xDC0, symBinAddr: 0x10000ED00, symSize: 0x50 }
  - { offsetInCU: 0xA057, offset: 0x25DFB, size: 0x8, addend: 0x0, symName: __ZNSt3__110unique_ptrIA_PNS_16__hash_node_baseIPNS_11__hash_nodeINS_17__hash_value_typeIyN3LOB5OrderEEEPvEEEENS_25__bucket_list_deallocatorINS_9allocatorISB_EEEEED1B7v160006Ev, symObjAddr: 0xEE0, symBinAddr: 0x10000ED60, symSize: 0x20 }
  - { offsetInCU: 0xA081, offset: 0x25E25, size: 0x8, addend: 0x0, symName: __ZNSt3__110unique_ptrIA_PNS_16__hash_node_baseIPNS_11__hash_nodeINS_17__hash_value_typeIyN3LOB5OrderEEEPvEEEENS_25__bucket_list_deallocatorINS_9allocatorISB_EEEEED2B7v160006Ev, symObjAddr: 0x11E0, symBinAddr: 0x10000ED80, symSize: 0x20 }
  - { offsetInCU: 0xA0AB, offset: 0x25E4F, size: 0x8, addend: 0x0, symName: __ZNSt3__110unique_ptrIA_PNS_16__hash_node_baseIPNS_11__hash_nodeINS_17__hash_value_typeIyN3LOB5OrderEEEPvEEEENS_25__bucket_list_deallocatorINS_9allocatorISB_EEEEE5resetB7v160006EDn, symObjAddr: 0x1200, symBinAddr: 0x10000EDA0, symSize: 0x60 }
  - { offsetInCU: 0xA0EC, offset: 0x25E90, size: 0x8, addend: 0x0, symName: __ZN3LOB9LimitTreeILNS_4SideE0EED2Ev, symObjAddr: 0x1420, symBinAddr: 0x10000EE00, symSize: 0x20 }
  - { offsetInCU: 0xA118, offset: 0x25EBC, size: 0x8, addend: 0x0, symName: __ZNSt3__13mapIyPN3LOB5LimitENS_4lessIyEENS_9allocatorINS_4pairIKyS3_EEEEED1B7v160006Ev, symObjAddr: 0x1440, symBinAddr: 0x10000EE20, symSize: 0x20 }
  - { offsetInCU: 0xA142, offset: 0x25EE6, size: 0x8, addend: 0x0, symName: __ZNSt3__13mapIyPN3LOB5LimitENS_4lessIyEENS_9allocatorINS_4pairIKyS3_EEEEED2B7v160006Ev, symObjAddr: 0x1460, symBinAddr: 0x10000EE40, symSize: 0x20 }
  - { offsetInCU: 0xA16C, offset: 0x25F10, size: 0x8, addend: 0x0, symName: __ZNSt3__16__treeINS_12__value_typeIyPN3LOB5LimitEEENS_19__map_value_compareIyS5_NS_4lessIyEELb1EEENS_9allocatorIS5_EEED1Ev, symObjAddr: 0x1480, symBinAddr: 0x10000EE60, symSize: 0x20 }
  - { offsetInCU: 0xA198, offset: 0x25F3C, size: 0x8, addend: 0x0, symName: __ZNSt3__16__treeINS_12__value_typeIyPN3LOB5LimitEEENS_19__map_value_compareIyS5_NS_4lessIyEELb1EEENS_9allocatorIS5_EEED2Ev, symObjAddr: 0x14A0, symBinAddr: 0x10000EE80, symSize: 0x30 }
  - { offsetInCU: 0xA1C4, offset: 0x25F68, size: 0x8, addend: 0x0, symName: __ZN3LOB9LimitTreeILNS_4SideE1EED2Ev, symObjAddr: 0x1790, symBinAddr: 0x10000EEB0, symSize: 0x20 }
  - { offsetInCU: 0xA1F0, offset: 0x25F94, size: 0x8, addend: 0x0, symName: __ZNSt3__126linear_congruential_engineIjLj48271ELj0ELj2147483647EEC1B7v160006Ej, symObjAddr: 0x17B0, symBinAddr: 0x10000EED0, symSize: 0x30 }
  - { offsetInCU: 0xA228, offset: 0x25FCC, size: 0x8, addend: 0x0, symName: __ZNSt3__126linear_congruential_engineIjLj48271ELj0ELj2147483647EEC2B7v160006Ej, symObjAddr: 0x17E0, symBinAddr: 0x10000EF00, symSize: 0x30 }
  - { offsetInCU: 0xA260, offset: 0x26004, size: 0x8, addend: 0x0, symName: __ZNSt3__126linear_congruential_engineIjLj48271ELj0ELj2147483647EE4seedB7v160006Ej, symObjAddr: 0x1810, symBinAddr: 0x10000EF30, symSize: 0x30 }
  - { offsetInCU: 0xA294, offset: 0x26038, size: 0x8, addend: 0x0, symName: __ZNSt3__126linear_congruential_engineIjLj48271ELj0ELj2147483647EE4seedB7v160006ENS_17integral_constantIbLb0EEENS2_IbLb1EEEj, symObjAddr: 0x1840, symBinAddr: 0x10000EF60, symSize: 0x50 }
  - { offsetInCU: 0xA2E1, offset: 0x26085, size: 0x8, addend: 0x0, symName: __ZNSt3__119normal_distributionIdEC2B7v160006Edd, symObjAddr: 0x1890, symBinAddr: 0x10000EFB0, symSize: 0x40 }
  - { offsetInCU: 0xA327, offset: 0x260CB, size: 0x8, addend: 0x0, symName: __ZNSt3__119normal_distributionIdE10param_typeC1B7v160006Edd, symObjAddr: 0x18D0, symBinAddr: 0x10000EFF0, symSize: 0x30 }
  - { offsetInCU: 0xA36D, offset: 0x26111, size: 0x8, addend: 0x0, symName: __ZNSt3__119normal_distributionIdE10param_typeC2B7v160006Edd, symObjAddr: 0x1900, symBinAddr: 0x10000F020, symSize: 0x30 }
  - { offsetInCU: 0xA3B3, offset: 0x26157, size: 0x8, addend: 0x0, symName: __ZNSt3__119normal_distributionIdEclINS_26linear_congruential_engineIjLj48271ELj0ELj2147483647EEEEEdRT_RKNS1_10param_typeE, symObjAddr: 0x1930, symBinAddr: 0x10000F050, symSize: 0x170 }
  - { offsetInCU: 0xA486, offset: 0x2622A, size: 0x8, addend: 0x0, symName: __ZNSt3__125uniform_real_distributionIdEC1Edd, symObjAddr: 0x1AA0, symBinAddr: 0x10000F1C0, symSize: 0x30 }
  - { offsetInCU: 0xA4CC, offset: 0x26270, size: 0x8, addend: 0x0, symName: __ZNSt3__125uniform_real_distributionIdEclB7v160006INS_26linear_congruential_engineIjLj48271ELj0ELj2147483647EEEEEdRT_, symObjAddr: 0x1AD0, symBinAddr: 0x10000F1F0, symSize: 0x30 }
  - { offsetInCU: 0xA509, offset: 0x262AD, size: 0x8, addend: 0x0, symName: __ZNKSt3__119normal_distributionIdE10param_type6stddevB7v160006Ev, symObjAddr: 0x1B00, symBinAddr: 0x10000F220, symSize: 0x20 }
  - { offsetInCU: 0xA52F, offset: 0x262D3, size: 0x8, addend: 0x0, symName: __ZNKSt3__119normal_distributionIdE10param_type4meanB7v160006Ev, symObjAddr: 0x1B20, symBinAddr: 0x10000F240, symSize: 0x20 }
  - { offsetInCU: 0xA555, offset: 0x262F9, size: 0x8, addend: 0x0, symName: __ZNSt3__125uniform_real_distributionIdEC2Edd, symObjAddr: 0x1B40, symBinAddr: 0x10000F260, symSize: 0x30 }
  - { offsetInCU: 0xA59B, offset: 0x2633F, size: 0x8, addend: 0x0, symName: __ZNSt3__125uniform_real_distributionIdE10param_typeC1B7v160006Edd, symObjAddr: 0x1B70, symBinAddr: 0x10000F290, symSize: 0x30 }
  - { offsetInCU: 0xA5E1, offset: 0x26385, size: 0x8, addend: 0x0, symName: __ZNSt3__125uniform_real_distributionIdE10param_typeC2B7v160006Edd, symObjAddr: 0x1BA0, symBinAddr: 0x10000F2C0, symSize: 0x30 }
  - { offsetInCU: 0xA627, offset: 0x263CB, size: 0x8, addend: 0x0, symName: __ZNSt3__125uniform_real_distributionIdEclINS_26linear_congruential_engineIjLj48271ELj0ELj2147483647EEEEEdRT_RKNS1_10param_typeE, symObjAddr: 0x1BD0, symBinAddr: 0x10000F2F0, symSize: 0x70 }
  - { offsetInCU: 0xA673, offset: 0x26417, size: 0x8, addend: 0x0, symName: __ZNKSt3__125uniform_real_distributionIdE10param_type1bB7v160006Ev, symObjAddr: 0x1C40, symBinAddr: 0x10000F360, symSize: 0x20 }
  - { offsetInCU: 0xA699, offset: 0x2643D, size: 0x8, addend: 0x0, symName: __ZNKSt3__125uniform_real_distributionIdE10param_type1aB7v160006Ev, symObjAddr: 0x1C60, symBinAddr: 0x10000F380, symSize: 0x20 }
  - { offsetInCU: 0xA6BF, offset: 0x26463, size: 0x8, addend: 0x0, symName: __ZNSt3__126linear_congruential_engineIjLj48271ELj0ELj2147483647EE3maxB7v160006Ev, symObjAddr: 0x1D80, symBinAddr: 0x10000F4A0, symSize: 0x10 }
  - { offsetInCU: 0xA6D3, offset: 0x26477, size: 0x8, addend: 0x0, symName: __ZNSt3__126linear_congruential_engineIjLj48271ELj0ELj2147483647EE3minB7v160006Ev, symObjAddr: 0x1D90, symBinAddr: 0x10000F4B0, symSize: 0x10 }
  - { offsetInCU: 0xA6E7, offset: 0x2648B, size: 0x8, addend: 0x0, symName: __ZNSt3__126linear_congruential_engineIjLj48271ELj0ELj2147483647EEclB7v160006Ev, symObjAddr: 0x1DA0, symBinAddr: 0x10000F4C0, symSize: 0x30 }
  - { offsetInCU: 0xA718, offset: 0x264BC, size: 0x8, addend: 0x0, symName: __ZNSt3__18__lce_taILy48271ELy0ELy2147483647ELy4294967295ELb1EE4nextB7v160006Ej, symObjAddr: 0x1DD0, symBinAddr: 0x10000F4F0, symSize: 0x72 }
...
